ARM GAS  C:\Users\vangelis\AppData\Local\Temp\cc5Dwgce.s 			page 1


   1              		.cpu cortex-m0
   2              		.fpu softvfp
   3              		.eabi_attribute 20, 1
   4              		.eabi_attribute 21, 1
   5              		.eabi_attribute 23, 3
   6              		.eabi_attribute 24, 1
   7              		.eabi_attribute 25, 1
   8              		.eabi_attribute 26, 1
   9              		.eabi_attribute 30, 6
  10              		.eabi_attribute 34, 0
  11              		.eabi_attribute 18, 4
  12              		.code	16
  13              		.file	"main.c"
  14              		.text
  15              	.Ltext0:
  16              		.cfi_sections	.debug_frame
  17              		.section	.text.main,"ax",%progbits
  18              		.align	2
  19              		.global	main
  20              		.code	16
  21              		.thumb_func
  22              		.type	main, %function
  23              	main:
  24              	.LFB33:
  25              		.file 1 ".\\main.c"
   1:.\main.c      **** /******************************************************************************
   2:.\main.c      **** * Project Name		: Bootloadable Blinking LED
   3:.\main.c      **** * File Name			: main.c
   4:.\main.c      **** * Version 			: 1.0
   5:.\main.c      **** * Device Used		: CY8C4245AXI-483
   6:.\main.c      **** * Software Used		: PSoC Creator 3.1
   7:.\main.c      **** * Compiler    		: ARMGCC 4.8.4, ARM RVDS Generic, ARM MDK Generic
   8:.\main.c      **** * Related Hardware	: CY8CKIT-049-42xx PSoC 4 Prototyping Kit 
   9:.\main.c      **** *
  10:.\main.c      **** ********************************************************************************
  11:.\main.c      **** * Copyright (2015), Cypress Semiconductor Corporation. All Rights Reserved.
  12:.\main.c      **** ********************************************************************************
  13:.\main.c      **** * This software is owned by Cypress Semiconductor Corporation (Cypress)
  14:.\main.c      **** * and is protected by and subject to worldwide patent protection (United
  15:.\main.c      **** * States and foreign), United States copyright laws and international treaty
  16:.\main.c      **** * provisions. Cypress hereby grants to licensee a personal, non-exclusive,
  17:.\main.c      **** * non-transferable license to copy, use, modify, create derivative works of,
  18:.\main.c      **** * and compile the Cypress Source Code and derivative works for the sole
  19:.\main.c      **** * purpose of creating custom software in support of licensee product to be
  20:.\main.c      **** * used only in conjunction with a Cypress integrated circuit as specified in
  21:.\main.c      **** * the applicable agreement. Any reproduction, modification, translation,
  22:.\main.c      **** * compilation, or representation of this software except as specified above 
  23:.\main.c      **** * is prohibited without the express written permission of Cypress.
  24:.\main.c      **** *
  25:.\main.c      **** * Disclaimer: CYPRESS MAKES NO WARRANTY OF ANY KIND, EXPRESS OR IMPLIED, WITH 
  26:.\main.c      **** * REGARD TO THIS MATERIAL, INCLUDING, BUT NOT LIMITED TO, THE IMPLIED 
  27:.\main.c      **** * WARRANTIES OF MERCHANTABILITY AND FITNESS FOR A PARTICULAR PURPOSE.
  28:.\main.c      **** * Cypress reserves the right to make changes without further notice to the 
  29:.\main.c      **** * materials described herein. Cypress does not assume any liability arising out 
  30:.\main.c      **** * of the application or use of any product or circuit described herein. Cypress 
  31:.\main.c      **** * does not authorize its products for use as critical components in life-support 
  32:.\main.c      **** * systems where a malfunction or failure may reasonably be expected to result in 
ARM GAS  C:\Users\vangelis\AppData\Local\Temp\cc5Dwgce.s 			page 2


  33:.\main.c      **** * significant injury to the user. The inclusion of Cypress' product in a life-
  34:.\main.c      **** * support systems application implies that the manufacturer assumes all risk of 
  35:.\main.c      **** * such use and in doing so indemnifies Cypress against all charges. 
  36:.\main.c      **** *
  37:.\main.c      **** * Use of this Software may be limited by and subject to the applicable Cypress
  38:.\main.c      **** * software license agreement. 
  39:.\main.c      **** *******************************************************************************/
  40:.\main.c      **** 
  41:.\main.c      **** /******************************************************************************
  42:.\main.c      **** *                           THEORY OF OPERATION
  43:.\main.c      **** * This is a blinking LED project. A PWM component drives the pin to blink the 
  44:.\main.c      **** * LED at regular intervals. This project contains a bootloadable component so 
  45:.\main.c      **** * that it can be bootloaded into PSoC 4 which has a bootloader already programmed 
  46:.\main.c      **** * into it.
  47:.\main.c      **** * Default UART Port Configuration for bootloading the PSoC 4 in CY8CKIT-049-42xx
  48:.\main.c      **** * Baud Rate : 115200 bps
  49:.\main.c      **** * Data Bits : 8
  50:.\main.c      **** * Stop Bits : 1
  51:.\main.c      **** * Parity    : None
  52:.\main.c      **** ******************************************************************************/
  53:.\main.c      **** #include <project.h>
  54:.\main.c      **** #include <stdlib.h>
  55:.\main.c      **** 
  56:.\main.c      **** extern const uint32 StripLights_CLUT[];
  57:.\main.c      **** 
  58:.\main.c      **** int main()
  59:.\main.c      **** {
  26              		.loc 1 59 0
  27              		.cfi_startproc
  28 0000 80B5     		push	{r7, lr}
  29              		.cfi_def_cfa_offset 8
  30              		.cfi_offset 7, -8
  31              		.cfi_offset 14, -4
  32 0002 82B0     		sub	sp, sp, #8
  33              		.cfi_def_cfa_offset 16
  34 0004 00AF     		add	r7, sp, #0
  35              		.cfi_def_cfa_register 7
  60:.\main.c      ****     int i, j;
  61:.\main.c      **** 	StripLights_Start();
  36              		.loc 1 61 0
  37 0006 FFF7FEFF 		bl	StripLights_Start
  62:.\main.c      ****     ESP_Start();
  38              		.loc 1 62 0
  39 000a FFF7FEFF 		bl	ESP_Start
  63:.\main.c      ****     
  64:.\main.c      ****     // Set dim level 0 = full power, 4 = lowest power
  65:.\main.c      ****     StripLights_Dim(0); 
  40              		.loc 1 65 0
  41 000e 0020     		mov	r0, #0
  42 0010 FFF7FEFF 		bl	StripLights_Dim
  66:.\main.c      **** 	
  67:.\main.c      **** 	// Clear all memory to black
  68:.\main.c      **** 	StripLights_MemClear(StripLights_BLACK);
  43              		.loc 1 68 0
  44 0014 194B     		ldr	r3, .L8
  45 0016 1B6E     		ldr	r3, [r3, #96]
  46 0018 181C     		mov	r0, r3
ARM GAS  C:\Users\vangelis\AppData\Local\Temp\cc5Dwgce.s 			page 3


  47 001a FFF7FEFF 		bl	StripLights_MemClear
  69:.\main.c      ****     // Enable global interrupts, required for StripLights
  70:.\main.c      ****     CyGlobalIntEnable; 
  48              		.loc 1 70 0
  49              	@ 70 ".\main.c" 1
  50 001e 62B6     		CPSIE   i
  51              	@ 0 "" 2
  52              		.code	16
  53              	.L7:
  71:.\main.c      ****     
  72:.\main.c      ****       
  73:.\main.c      **** 	for(;;) {
  74:.\main.c      ****         for (j = 0; j < StripLights_ROWS; j++) {
  54              		.loc 1 74 0
  55 0020 0023     		mov	r3, #0
  56 0022 3B60     		str	r3, [r7]
  57 0024 26E0     		b	.L2
  58              	.L6:
  75:.\main.c      ****             // Wait for last update to finish
  76:.\main.c      ****             for (i = 0; i < StripLights_COLUMNS; i++) {
  59              		.loc 1 76 0
  60 0026 0023     		mov	r3, #0
  61 0028 7B60     		str	r3, [r7, #4]
  62 002a 1DE0     		b	.L3
  63              	.L5:
  77:.\main.c      **** 
  78:.\main.c      ****     		// Wait for last update to finish
  79:.\main.c      ****     	             while( StripLights_Ready() == 0);  
  64              		.loc 1 79 0
  65 002c C046     		mov	r8, r8
  66              	.L4:
  67              		.loc 1 79 0 is_stmt 0 discriminator 1
  68 002e FFF7FEFF 		bl	StripLights_Ready
  69 0032 031E     		sub	r3, r0, #0
  70 0034 FBD0     		beq	.L4
  80:.\main.c      ****                 // Set the color of a single LED
  81:.\main.c      ****                 StripLights_MemClear(StripLights_BLACK);
  71              		.loc 1 81 0 is_stmt 1 discriminator 2
  72 0036 114B     		ldr	r3, .L8
  73 0038 1B6E     		ldr	r3, [r3, #96]
  74 003a 181C     		mov	r0, r3
  75 003c FFF7FEFF 		bl	StripLights_MemClear
  82:.\main.c      ****     	        StripLights_Pixel(i, j, StripLights_WHITE );
  76              		.loc 1 82 0 discriminator 2
  77 0040 0E4A     		ldr	r2, .L8
  78 0042 AE23     		mov	r3, #174
  79 0044 5B00     		lsl	r3, r3, #1
  80 0046 D358     		ldr	r3, [r2, r3]
  81 0048 7968     		ldr	r1, [r7, #4]
  82 004a 3A68     		ldr	r2, [r7]
  83 004c 081C     		mov	r0, r1
  84 004e 111C     		mov	r1, r2
  85 0050 1A1C     		mov	r2, r3
  86 0052 FFF7FEFF 		bl	StripLights_Pixel
  83:.\main.c      ****                 StripLights_Trigger(1); 
  87              		.loc 1 83 0 discriminator 2
  88 0056 0120     		mov	r0, #1
ARM GAS  C:\Users\vangelis\AppData\Local\Temp\cc5Dwgce.s 			page 4


  89 0058 FFF7FEFF 		bl	StripLights_Trigger
  84:.\main.c      ****                 CyDelay(50);
  90              		.loc 1 84 0 discriminator 2
  91 005c 3220     		mov	r0, #50
  92 005e FFF7FEFF 		bl	CyDelay
  76:.\main.c      **** 
  93              		.loc 1 76 0 discriminator 2
  94 0062 7B68     		ldr	r3, [r7, #4]
  95 0064 0133     		add	r3, r3, #1
  96 0066 7B60     		str	r3, [r7, #4]
  97              	.L3:
  76:.\main.c      **** 
  98              		.loc 1 76 0 is_stmt 0 discriminator 1
  99 0068 7B68     		ldr	r3, [r7, #4]
 100 006a 0B2B     		cmp	r3, #11
 101 006c DEDD     		ble	.L5
  74:.\main.c      ****             // Wait for last update to finish
 102              		.loc 1 74 0 is_stmt 1 discriminator 2
 103 006e 3B68     		ldr	r3, [r7]
 104 0070 0133     		add	r3, r3, #1
 105 0072 3B60     		str	r3, [r7]
 106              	.L2:
  74:.\main.c      ****             // Wait for last update to finish
 107              		.loc 1 74 0 is_stmt 0 discriminator 1
 108 0074 3B68     		ldr	r3, [r7]
 109 0076 0B2B     		cmp	r3, #11
 110 0078 D5DD     		ble	.L6
  85:.\main.c      ****             }
  86:.\main.c      ****         }
  87:.\main.c      ****     }
 111              		.loc 1 87 0 is_stmt 1
 112 007a D1E7     		b	.L7
 113              	.L9:
 114              		.align	2
 115              	.L8:
 116 007c 00000000 		.word	StripLights_CLUT
 117              		.cfi_endproc
 118              	.LFE33:
 119              		.size	main, .-main
 120              		.text
 121              	.Letext0:
 122              		.file 2 "Generated_Source\\PSoC4/cytypes.h"