ARM GAS  C:\Users\vangelis\AppData\Local\Temp\ccJoPsBk.s 			page 1


   1              		.cpu cortex-m0
   2              		.fpu softvfp
   3              		.eabi_attribute 20, 1
   4              		.eabi_attribute 21, 1
   5              		.eabi_attribute 23, 3
   6              		.eabi_attribute 24, 1
   7              		.eabi_attribute 25, 1
   8              		.eabi_attribute 26, 1
   9              		.eabi_attribute 30, 6
  10              		.eabi_attribute 34, 0
  11              		.eabi_attribute 18, 4
  12              		.code	16
  13              		.file	"StripLights.c"
  14              		.text
  15              	.Ltext0:
  16              		.cfi_sections	.debug_frame
  17              		.global	StripLights_initvar
  18              		.bss
  19              		.type	StripLights_initvar, %object
  20              		.size	StripLights_initvar, 1
  21              	StripLights_initvar:
  22 0000 00       		.space	1
  23              		.comm	StripLights_ledArray,576,4
  24              		.global	StripLights_ledIndex
  25 0001 000000   		.align	2
  26              		.type	StripLights_ledIndex, %object
  27              		.size	StripLights_ledIndex, 4
  28              	StripLights_ledIndex:
  29 0004 00000000 		.space	4
  30              		.global	StripLights_row
  31              		.align	2
  32              		.type	StripLights_row, %object
  33              		.size	StripLights_row, 4
  34              	StripLights_row:
  35 0008 00000000 		.space	4
  36              		.comm	StripLights_refreshComplete,4,4
  37              		.comm	StripLights_DimMask,4,4
  38              		.comm	StripLights_DimShift,4,4
  39              		.global	StripLights_CLUT
  40              		.section	.rodata
  41              		.align	2
  42              		.type	StripLights_CLUT, %object
  43              		.size	StripLights_CLUT, 480
  44              	StripLights_CLUT:
  45 0000 FFFF0000 		.word	65535
  46 0004 FFCC0000 		.word	52479
  47 0008 FF990000 		.word	39423
  48 000c FF330000 		.word	13311
  49 0010 FF000000 		.word	255
  50 0014 B3006600 		.word	6684851
  51 0018 99009900 		.word	10027161
  52 001c 6600B300 		.word	11731046
  53 0020 3300CC00 		.word	13369395
  54 0024 1919B300 		.word	11737369
  55 0028 00339900 		.word	10040064
  56 002c 00409900 		.word	10043392
  57 0030 00669900 		.word	10053120
ARM GAS  C:\Users\vangelis\AppData\Local\Temp\ccJoPsBk.s 			page 2


  58 0034 00999900 		.word	10066176
  59 0038 00CC9900 		.word	10079232
  60 003c 00E66600 		.word	6743552
  61 0040 00FF0000 		.word	65280
  62 0044 33FF0000 		.word	65331
  63 0048 66FF0000 		.word	65382
  64 004c 80FF0000 		.word	65408
  65 0050 99FF0000 		.word	65433
  66 0054 B2FF0000 		.word	65458
  67 0058 CCFF0000 		.word	65484
  68 005c E5FF0000 		.word	65509
  69 0060 00000000 		.word	0
  70 0064 00005500 		.word	5570560
  71 0068 0000AA00 		.word	11141120
  72 006c 0000FF00 		.word	16711680
  73 0070 55000000 		.word	85
  74 0074 55005500 		.word	5570645
  75 0078 5500AA00 		.word	11141205
  76 007c 5500FF00 		.word	16711765
  77 0080 AA000000 		.word	170
  78 0084 AA005500 		.word	5570730
  79 0088 AA00AA00 		.word	11141290
  80 008c AA00FF00 		.word	16711850
  81 0090 FF000000 		.word	255
  82 0094 FF005500 		.word	5570815
  83 0098 FF00AA00 		.word	11141375
  84 009c FF00FF00 		.word	16711935
  85 00a0 00550000 		.word	21760
  86 00a4 00555500 		.word	5592320
  87 00a8 0055AA00 		.word	11162880
  88 00ac 0055FF00 		.word	16733440
  89 00b0 55550000 		.word	21845
  90 00b4 55555500 		.word	5592405
  91 00b8 5555AA00 		.word	11162965
  92 00bc 5555FF00 		.word	16733525
  93 00c0 AA550000 		.word	21930
  94 00c4 AA555500 		.word	5592490
  95 00c8 AA55AA00 		.word	11163050
  96 00cc AA55FF00 		.word	16733610
  97 00d0 FF550000 		.word	22015
  98 00d4 FF555500 		.word	5592575
  99 00d8 FF55AA00 		.word	11163135
 100 00dc FF55FF00 		.word	16733695
 101 00e0 00AA0000 		.word	43520
 102 00e4 00AA5500 		.word	5614080
 103 00e8 00AAAA00 		.word	11184640
 104 00ec 00AAFF00 		.word	16755200
 105 00f0 55AA0000 		.word	43605
 106 00f4 55AA5500 		.word	5614165
 107 00f8 55AAAA00 		.word	11184725
 108 00fc 55AAFF00 		.word	16755285
 109 0100 AAAA0000 		.word	43690
 110 0104 AAAA5500 		.word	5614250
 111 0108 AAAAAA00 		.word	11184810
 112 010c AAAAFF00 		.word	16755370
 113 0110 FFAA0000 		.word	43775
 114 0114 FFAA5500 		.word	5614335
ARM GAS  C:\Users\vangelis\AppData\Local\Temp\ccJoPsBk.s 			page 3


 115 0118 FFAAAA00 		.word	11184895
 116 011c FFAAFF00 		.word	16755455
 117 0120 00FF0000 		.word	65280
 118 0124 00FF5500 		.word	5635840
 119 0128 00FFAA00 		.word	11206400
 120 012c 00FFFF00 		.word	16776960
 121 0130 55FF0000 		.word	65365
 122 0134 55FF5500 		.word	5635925
 123 0138 55FFAA00 		.word	11206485
 124 013c 55FFFF00 		.word	16777045
 125 0140 AAFF0000 		.word	65450
 126 0144 AAFF5500 		.word	5636010
 127 0148 AAFFAA00 		.word	11206570
 128 014c AAFFFF00 		.word	16777130
 129 0150 FFFF0000 		.word	65535
 130 0154 FFFF5500 		.word	5636095
 131 0158 FFFFAA00 		.word	11206655
 132 015c FFFFFF00 		.word	16777215
 133 0160 FF800000 		.word	33023
 134 0164 FF008000 		.word	8388863
 135 0168 FF00FF00 		.word	16711935
 136 016c 8000FF00 		.word	16711808
 137 0170 0080FF00 		.word	16744448
 138 0174 00FF8000 		.word	8453888
 139 0178 FF000000 		.word	255
 140 017c 20202000 		.word	2105376
 141 0180 00002000 		.word	2097152
 142 0184 00000010 		.word	268435456
 143 0188 00000000 		.word	0
 144 018c 00000000 		.word	0
 145 0190 00000000 		.word	0
 146 0194 00000000 		.word	0
 147 0198 00000000 		.word	0
 148 019c 00000000 		.word	0
 149 01a0 0000FF00 		.word	16711680
 150 01a4 0010F000 		.word	15732736
 151 01a8 0020E000 		.word	14688256
 152 01ac 0030D000 		.word	13643776
 153 01b0 0040C000 		.word	12599296
 154 01b4 0050B000 		.word	11554816
 155 01b8 0060A000 		.word	10510336
 156 01bc 00709000 		.word	9465856
 157 01c0 00808000 		.word	8421376
 158 01c4 00907000 		.word	7376896
 159 01c8 00A06000 		.word	6332416
 160 01cc 00B05000 		.word	5287936
 161 01d0 00C04000 		.word	4243456
 162 01d4 00D03000 		.word	3198976
 163 01d8 00E02000 		.word	2154496
 164 01dc 00FF0000 		.word	65280
 165              		.section	.text.StripLights_Start,"ax",%progbits
 166              		.align	2
 167              		.global	StripLights_Start
 168              		.code	16
 169              		.thumb_func
 170              		.type	StripLights_Start, %function
 171              	StripLights_Start:
ARM GAS  C:\Users\vangelis\AppData\Local\Temp\ccJoPsBk.s 			page 4


 172              	.LFB33:
 173              		.file 1 ".\\Generated_Source\\PSoC4\\StripLights.c"
   1:.\Generated_Source\PSoC4/StripLights.c **** /* =========================================================
   2:.\Generated_Source\PSoC4/StripLights.c ****  *
   3:.\Generated_Source\PSoC4/StripLights.c ****  * Strip Light Controller
   4:.\Generated_Source\PSoC4/StripLights.c ****  * By Mark Hastings
   5:.\Generated_Source\PSoC4/StripLights.c ****  *
   6:.\Generated_Source\PSoC4/StripLights.c ****  * 05/27/2013  v1.0  Mark Hastings   Initial working version
   7:.\Generated_Source\PSoC4/StripLights.c ****  * 09/04/2013  v1.3  Mark Hastings   Add more features and color lookup.
   8:.\Generated_Source\PSoC4/StripLights.c ****  * 12/02/2013  v1.6  Mark Hastings   Added a couple more functions.
   9:.\Generated_Source\PSoC4/StripLights.c ****  *
  10:.\Generated_Source\PSoC4/StripLights.c ****  * This file contains the functions required to control each
  11:.\Generated_Source\PSoC4/StripLights.c ****  * lighting control channel.
  12:.\Generated_Source\PSoC4/StripLights.c ****  *
  13:.\Generated_Source\PSoC4/StripLights.c ****  * =========================================================
  14:.\Generated_Source\PSoC4/StripLights.c **** */
  15:.\Generated_Source\PSoC4/StripLights.c **** 
  16:.\Generated_Source\PSoC4/StripLights.c **** #include <project.h>
  17:.\Generated_Source\PSoC4/StripLights.c **** #include "cytypes.h"
  18:.\Generated_Source\PSoC4/StripLights.c **** #include "stdlib.h"
  19:.\Generated_Source\PSoC4/StripLights.c **** #include "cyfitter.h"
  20:.\Generated_Source\PSoC4/StripLights.c **** #include "StripLights.h"
  21:.\Generated_Source\PSoC4/StripLights.c **** #include "StripLights_fonts.h"
  22:.\Generated_Source\PSoC4/StripLights.c **** 
  23:.\Generated_Source\PSoC4/StripLights.c **** uint8  StripLights_initvar = 0;
  24:.\Generated_Source\PSoC4/StripLights.c **** 
  25:.\Generated_Source\PSoC4/StripLights.c **** #if(StripLights_MEMORY_TYPE == StripLights_MEMORY_RGB)
  26:.\Generated_Source\PSoC4/StripLights.c **** uint32  StripLights_ledArray[StripLights_ARRAY_ROWS][StripLights_ARRAY_COLS];
  27:.\Generated_Source\PSoC4/StripLights.c **** #else
  28:.\Generated_Source\PSoC4/StripLights.c **** uint8   StripLights_ledArray[StripLights_ARRAY_ROWS][StripLights_ARRAY_COLS];
  29:.\Generated_Source\PSoC4/StripLights.c **** #endif
  30:.\Generated_Source\PSoC4/StripLights.c **** 
  31:.\Generated_Source\PSoC4/StripLights.c **** uint32  StripLights_ledIndex = 0;  
  32:.\Generated_Source\PSoC4/StripLights.c **** uint32  StripLights_row = 0;
  33:.\Generated_Source\PSoC4/StripLights.c **** uint32  StripLights_refreshComplete;
  34:.\Generated_Source\PSoC4/StripLights.c **** 
  35:.\Generated_Source\PSoC4/StripLights.c **** uint32  StripLights_DimMask;
  36:.\Generated_Source\PSoC4/StripLights.c **** uint32  StripLights_DimShift;
  37:.\Generated_Source\PSoC4/StripLights.c **** 
  38:.\Generated_Source\PSoC4/StripLights.c **** 
  39:.\Generated_Source\PSoC4/StripLights.c **** #if(StripLights_CHIP == StripLights_CHIP_WS2812)
  40:.\Generated_Source\PSoC4/StripLights.c **** const uint32 StripLights_CLUT[ ] = {
  41:.\Generated_Source\PSoC4/StripLights.c **** //xxBBRRGG (WS2812)
  42:.\Generated_Source\PSoC4/StripLights.c **** //     (24)   [ Index = 0 ]
  43:.\Generated_Source\PSoC4/StripLights.c **** 0x0000FFFF,  // 0 Yellow
  44:.\Generated_Source\PSoC4/StripLights.c **** 0x0000CCFF,
  45:.\Generated_Source\PSoC4/StripLights.c **** 0x000099FF,
  46:.\Generated_Source\PSoC4/StripLights.c **** 0x000033FF,
  47:.\Generated_Source\PSoC4/StripLights.c **** 0x000000FF,  // 5  Green
  48:.\Generated_Source\PSoC4/StripLights.c **** 0x006600B3,
  49:.\Generated_Source\PSoC4/StripLights.c **** 0x00990099, 
  50:.\Generated_Source\PSoC4/StripLights.c **** 0x00B30066, 
  51:.\Generated_Source\PSoC4/StripLights.c **** 0x00CC0033,  // 9 Blue
  52:.\Generated_Source\PSoC4/StripLights.c **** 0x00B31919, 
  53:.\Generated_Source\PSoC4/StripLights.c **** 0x00993300, 
  54:.\Generated_Source\PSoC4/StripLights.c **** 0x00994000, 
  55:.\Generated_Source\PSoC4/StripLights.c **** 0x00996600, 
ARM GAS  C:\Users\vangelis\AppData\Local\Temp\ccJoPsBk.s 			page 5


  56:.\Generated_Source\PSoC4/StripLights.c **** 0x00999900, 
  57:.\Generated_Source\PSoC4/StripLights.c **** 0x0099CC00, 
  58:.\Generated_Source\PSoC4/StripLights.c **** 0x0066E600, 
  59:.\Generated_Source\PSoC4/StripLights.c **** 0x0000FF00, 
  60:.\Generated_Source\PSoC4/StripLights.c **** 0x0000FF33, 
  61:.\Generated_Source\PSoC4/StripLights.c **** 0x0000FF66, 
  62:.\Generated_Source\PSoC4/StripLights.c **** 0x0000FF80, 
  63:.\Generated_Source\PSoC4/StripLights.c **** 0x0000FF99,  // 20 Orange
  64:.\Generated_Source\PSoC4/StripLights.c **** 0x0000FFB2, 
  65:.\Generated_Source\PSoC4/StripLights.c **** 0x0000FFCC, 
  66:.\Generated_Source\PSoC4/StripLights.c **** 0x0000FFE5,
  67:.\Generated_Source\PSoC4/StripLights.c **** // #24
  68:.\Generated_Source\PSoC4/StripLights.c **** 
  69:.\Generated_Source\PSoC4/StripLights.c **** //xxBBRRGG  (64)  [ Index = 24 ]
  70:.\Generated_Source\PSoC4/StripLights.c **** 0x00000000, 0x00550000, 0x00AA0000, 0x00FF0000,  // 0, Black,  LtBlue, MBlue, Blue
  71:.\Generated_Source\PSoC4/StripLights.c **** 0x00000055, 0x00550055, 0x00AA0055, 0x00FF0055,  // 4, LtGreen
  72:.\Generated_Source\PSoC4/StripLights.c **** 0x000000AA, 0x005500AA, 0x00AA00AA, 0x00FF00AA,  // 8, MGreen
  73:.\Generated_Source\PSoC4/StripLights.c **** 0x000000FF, 0x005500FF, 0x00AA00FF, 0x00FF00FF,  // 12 Green
  74:.\Generated_Source\PSoC4/StripLights.c **** 
  75:.\Generated_Source\PSoC4/StripLights.c **** 0x00005500, 0x00555500, 0x00AA5500, 0x00FF5500,  // 16, LtRed
  76:.\Generated_Source\PSoC4/StripLights.c **** 0x00005555, 0x00555555, 0x00AA5555, 0x00FF5555,  // 20, LtYellow
  77:.\Generated_Source\PSoC4/StripLights.c **** 0x000055AA, 0x005555AA, 0x00AA55AA, 0x00FF55AA,  // 24, 
  78:.\Generated_Source\PSoC4/StripLights.c **** 0x000055FF, 0x005555FF, 0x00AA55FF, 0x00FF55FF,  // 28,
  79:.\Generated_Source\PSoC4/StripLights.c **** 
  80:.\Generated_Source\PSoC4/StripLights.c **** 0x0000AA00, 0x0055AA00, 0x00AAAA00, 0x00FFAA00,  // 32, MRed
  81:.\Generated_Source\PSoC4/StripLights.c **** 0x0000AA55, 0x0055AA55, 0x00AAAA55, 0x00FFAA55,  // 36, 
  82:.\Generated_Source\PSoC4/StripLights.c **** 0x0000AAAA, 0x0055AAAA, 0x00AAAAAA, 0x00FFAAAA,  // 55, 
  83:.\Generated_Source\PSoC4/StripLights.c **** 0x0000AAFF, 0x0055AAFF, 0x00AAAAFF, 0x00FFAAFF,  // 44, 
  84:.\Generated_Source\PSoC4/StripLights.c **** 
  85:.\Generated_Source\PSoC4/StripLights.c **** 0x0000FF00, 0x0055FF00, 0x00AAFF00, 0x00FFFF00,  // 48, Red, ??, ??, Magenta
  86:.\Generated_Source\PSoC4/StripLights.c **** 0x0000FF55, 0x0055FF55, 0x00AAFF55, 0x00FFFF55,  // 52,
  87:.\Generated_Source\PSoC4/StripLights.c **** 0x0000FFAA, 0x0055FFAA, 0x00AAFFAA, 0x00FFFFAA,  // 56,
  88:.\Generated_Source\PSoC4/StripLights.c **** 0x0000FFFF, 0x0055FFFF, 0x00AAFFFF, 0x00FFFFFF,  // 60, Yellow,??, ??, White
  89:.\Generated_Source\PSoC4/StripLights.c **** 
  90:.\Generated_Source\PSoC4/StripLights.c **** // Misc ( 16 )  [ Index = 88 ]
  91:.\Generated_Source\PSoC4/StripLights.c **** 0x000080FF,  // SPRING_GREEN
  92:.\Generated_Source\PSoC4/StripLights.c **** 0x008000FF,  // TURQUOSE
  93:.\Generated_Source\PSoC4/StripLights.c **** 0x00FF00FF,  // CYAN
  94:.\Generated_Source\PSoC4/StripLights.c **** 0x00FF0080,  // OCEAN
  95:.\Generated_Source\PSoC4/StripLights.c **** 0x00FF8000,  // VIOLET
  96:.\Generated_Source\PSoC4/StripLights.c **** 0x0080FF00,  // RASPBERRY
  97:.\Generated_Source\PSoC4/StripLights.c **** 0x000000FF,  // GREEN
  98:.\Generated_Source\PSoC4/StripLights.c **** 0x00202020,  // DIM WHITE
  99:.\Generated_Source\PSoC4/StripLights.c **** 0x00200000,  // DIM BLUE
 100:.\Generated_Source\PSoC4/StripLights.c **** 0x10000000,  // INVISIBLE
 101:.\Generated_Source\PSoC4/StripLights.c **** 0x00000000,  // Spare
 102:.\Generated_Source\PSoC4/StripLights.c **** 0x00000000,  // Spare
 103:.\Generated_Source\PSoC4/StripLights.c **** 0x00000000,  // Spare
 104:.\Generated_Source\PSoC4/StripLights.c **** 0x00000000,  // Spare
 105:.\Generated_Source\PSoC4/StripLights.c **** 0x00000000,  // Spare
 106:.\Generated_Source\PSoC4/StripLights.c **** 0x00000000,  // Spare
 107:.\Generated_Source\PSoC4/StripLights.c **** 
 108:.\Generated_Source\PSoC4/StripLights.c **** // Temperture Color Blue to Red (16) [ Index = 104 ]
 109:.\Generated_Source\PSoC4/StripLights.c **** 0x00FF0000, 0x00F01000, 0x00E02000, 0x00D03000,
 110:.\Generated_Source\PSoC4/StripLights.c **** 0x00C04000, 0x00B05000, 0x00A06000, 0x00907000,
 111:.\Generated_Source\PSoC4/StripLights.c **** 0x00808000, 0x00709000, 0x0060A000, 0x0050B000,
 112:.\Generated_Source\PSoC4/StripLights.c **** 0x0040C000, 0x0030D000, 0x0020E000, 0x0000FF00
ARM GAS  C:\Users\vangelis\AppData\Local\Temp\ccJoPsBk.s 			page 6


 113:.\Generated_Source\PSoC4/StripLights.c **** };
 114:.\Generated_Source\PSoC4/StripLights.c **** #else  //xxBBGGRR (WS2811)
 115:.\Generated_Source\PSoC4/StripLights.c **** const uint32 StripLights_CLUT[ ] = {
 116:.\Generated_Source\PSoC4/StripLights.c **** //     (24)   [ Index = 0 ]
 117:.\Generated_Source\PSoC4/StripLights.c **** 0x0000FFFF,  // 0 Yellow
 118:.\Generated_Source\PSoC4/StripLights.c **** 0x0000FFCC,
 119:.\Generated_Source\PSoC4/StripLights.c **** 0x0000FF99,
 120:.\Generated_Source\PSoC4/StripLights.c **** 0x0000FF33,
 121:.\Generated_Source\PSoC4/StripLights.c **** 0x0000FF00,  // 5  Green
 122:.\Generated_Source\PSoC4/StripLights.c **** 0x0066B300,
 123:.\Generated_Source\PSoC4/StripLights.c **** 0x00999900, 
 124:.\Generated_Source\PSoC4/StripLights.c **** 0x00B36600, 
 125:.\Generated_Source\PSoC4/StripLights.c **** 0x00CC3300,  // 9 Blue
 126:.\Generated_Source\PSoC4/StripLights.c **** 0x00B31919, 
 127:.\Generated_Source\PSoC4/StripLights.c **** 0x00990033, 
 128:.\Generated_Source\PSoC4/StripLights.c **** 0x00990040, 
 129:.\Generated_Source\PSoC4/StripLights.c **** 0x00990066, 
 130:.\Generated_Source\PSoC4/StripLights.c **** 0x00990099, 
 131:.\Generated_Source\PSoC4/StripLights.c **** 0x009900CC, 
 132:.\Generated_Source\PSoC4/StripLights.c **** 0x006600E6, 
 133:.\Generated_Source\PSoC4/StripLights.c **** 0x000000FF, 
 134:.\Generated_Source\PSoC4/StripLights.c **** 0x000033FF, 
 135:.\Generated_Source\PSoC4/StripLights.c **** 0x000066FF, 
 136:.\Generated_Source\PSoC4/StripLights.c **** 0x000080FF, 
 137:.\Generated_Source\PSoC4/StripLights.c **** 0x000099FF,  // 20 Orange
 138:.\Generated_Source\PSoC4/StripLights.c **** 0x0000B2FF, 
 139:.\Generated_Source\PSoC4/StripLights.c **** 0x0000CCFF, 
 140:.\Generated_Source\PSoC4/StripLights.c **** 0x0000E5FF,
 141:.\Generated_Source\PSoC4/StripLights.c **** // #24
 142:.\Generated_Source\PSoC4/StripLights.c **** 
 143:.\Generated_Source\PSoC4/StripLights.c **** //xxBBRRGG  (64)  [ Index = 24 ]
 144:.\Generated_Source\PSoC4/StripLights.c **** 0x00000000, 0x00550000, 0x00AA0000, 0x00FF0000,  // 0, Black,  LtBlue, MBlue, Blue
 145:.\Generated_Source\PSoC4/StripLights.c **** 0x00005500, 0x00555500, 0x00AA5500, 0x00FF5500,  // 4, LtGreen
 146:.\Generated_Source\PSoC4/StripLights.c **** 0x0000AA00, 0x0055AA00, 0x00AAAA00, 0x00FFAA00,  // 8, MGreen
 147:.\Generated_Source\PSoC4/StripLights.c **** 0x0000FF00, 0x0055FF00, 0x00AAFF00, 0x00FFFF00,  // 12 Green
 148:.\Generated_Source\PSoC4/StripLights.c **** 
 149:.\Generated_Source\PSoC4/StripLights.c **** 0x00000055, 0x00550055, 0x00AA0055, 0x00FF0055,  // 16, LtRed
 150:.\Generated_Source\PSoC4/StripLights.c **** 0x00005555, 0x00555555, 0x00AA5555, 0x00FF5555,  // 20, LtYellow
 151:.\Generated_Source\PSoC4/StripLights.c **** 0x0000AA55, 0x0055AA55, 0x00AAAA55, 0x00FFAA55,  // 24, 
 152:.\Generated_Source\PSoC4/StripLights.c **** 0x0000FF55, 0x0055FF55, 0x00AAFF55, 0x00FFFF55,  // 28,
 153:.\Generated_Source\PSoC4/StripLights.c **** 
 154:.\Generated_Source\PSoC4/StripLights.c **** 0x000000AA, 0x005500AA, 0x00AA00AA, 0x00FF00AA,  // 32, MRed
 155:.\Generated_Source\PSoC4/StripLights.c **** 0x000055AA, 0x005555AA, 0x00AA55AA, 0x00FF55AA,  // 36, 
 156:.\Generated_Source\PSoC4/StripLights.c **** 0x0000AAAA, 0x0055AAAA, 0x00AAAAAA, 0x00FFAAAA,  // 55, 
 157:.\Generated_Source\PSoC4/StripLights.c **** 0x0000FFAA, 0x0055FFAA, 0x00AAFFAA, 0x00FFFFAA,  // 44, 
 158:.\Generated_Source\PSoC4/StripLights.c **** 
 159:.\Generated_Source\PSoC4/StripLights.c **** 0x000000FF, 0x005500FF, 0x00AA00FF, 0x00F00FFF,  // 48, Red, ??, ??, Magenta
 160:.\Generated_Source\PSoC4/StripLights.c **** 0x000055FF, 0x005555FF, 0x00AA55FF, 0x00FF55FF,  // 52,
 161:.\Generated_Source\PSoC4/StripLights.c **** 0x0000AAFF, 0x0055AAFF, 0x00AAAAFF, 0x00FFAAFF,  // 56,
 162:.\Generated_Source\PSoC4/StripLights.c **** 0x0000FFFF, 0x0055FFFF, 0x00AAFFFF, 0x00FFFFFF,  // 60, Yellow,??, ??, White
 163:.\Generated_Source\PSoC4/StripLights.c **** 
 164:.\Generated_Source\PSoC4/StripLights.c **** // Misc ( 16 )  [ Index = 88 ]
 165:.\Generated_Source\PSoC4/StripLights.c **** 0x0000FF80,  // SPRING_GREEN
 166:.\Generated_Source\PSoC4/StripLights.c **** 0x0080FF00,  // TURQUOSE
 167:.\Generated_Source\PSoC4/StripLights.c **** 0x00FFFF00,  // CYAN
 168:.\Generated_Source\PSoC4/StripLights.c **** 0x00FF8000,  // OCEAN
 169:.\Generated_Source\PSoC4/StripLights.c **** 0x00FF0080,  // VIOLET
ARM GAS  C:\Users\vangelis\AppData\Local\Temp\ccJoPsBk.s 			page 7


 170:.\Generated_Source\PSoC4/StripLights.c **** 0x008000FF,  // RASPBERRY
 171:.\Generated_Source\PSoC4/StripLights.c **** 0x0000FF00,  // GREEN
 172:.\Generated_Source\PSoC4/StripLights.c **** 0x00202020,  // DIM WHITE
 173:.\Generated_Source\PSoC4/StripLights.c **** 0x00200000,  // DIM BLUE
 174:.\Generated_Source\PSoC4/StripLights.c **** 0x10000000,  // INVISIBLE
 175:.\Generated_Source\PSoC4/StripLights.c **** 0x00000000,  // Spare
 176:.\Generated_Source\PSoC4/StripLights.c **** 0x00000000,  // Spare
 177:.\Generated_Source\PSoC4/StripLights.c **** 0x00000000,  // Spare
 178:.\Generated_Source\PSoC4/StripLights.c **** 0x00000000,  // Spare
 179:.\Generated_Source\PSoC4/StripLights.c **** 0x00000000,  // Spare
 180:.\Generated_Source\PSoC4/StripLights.c **** 0x00000000,  // Spare
 181:.\Generated_Source\PSoC4/StripLights.c **** 
 182:.\Generated_Source\PSoC4/StripLights.c **** // Temperture Color Blue to Red (16) [ Index = 104 ]
 183:.\Generated_Source\PSoC4/StripLights.c **** 0x00FF0000, 0x00F00010, 0x00E00020, 0x00D00030,
 184:.\Generated_Source\PSoC4/StripLights.c **** 0x00C00040, 0x00B00050, 0x00A00060, 0x00900070,
 185:.\Generated_Source\PSoC4/StripLights.c **** 0x00800080, 0x00700090, 0x006000A0, 0x005000B0,
 186:.\Generated_Source\PSoC4/StripLights.c **** 0x004000C0, 0x003000D0, 0x002000E0, 0x000000FF
 187:.\Generated_Source\PSoC4/StripLights.c **** };
 188:.\Generated_Source\PSoC4/StripLights.c **** #endif
 189:.\Generated_Source\PSoC4/StripLights.c **** 
 190:.\Generated_Source\PSoC4/StripLights.c **** 
 191:.\Generated_Source\PSoC4/StripLights.c **** 
 192:.\Generated_Source\PSoC4/StripLights.c **** /*******************************************************************************
 193:.\Generated_Source\PSoC4/StripLights.c **** * Function Name: StripLights_Start
 194:.\Generated_Source\PSoC4/StripLights.c **** ********************************************************************************
 195:.\Generated_Source\PSoC4/StripLights.c **** * Summary:
 196:.\Generated_Source\PSoC4/StripLights.c **** *  Initialize the hardware. 
 197:.\Generated_Source\PSoC4/StripLights.c **** *
 198:.\Generated_Source\PSoC4/StripLights.c **** * Parameters:  
 199:.\Generated_Source\PSoC4/StripLights.c **** *  void  
 200:.\Generated_Source\PSoC4/StripLights.c **** *
 201:.\Generated_Source\PSoC4/StripLights.c **** * Return: 
 202:.\Generated_Source\PSoC4/StripLights.c **** *  void
 203:.\Generated_Source\PSoC4/StripLights.c **** *
 204:.\Generated_Source\PSoC4/StripLights.c **** *******************************************************************************/
 205:.\Generated_Source\PSoC4/StripLights.c **** void StripLights_Start()
 206:.\Generated_Source\PSoC4/StripLights.c **** {
 174              		.loc 1 206 0
 175              		.cfi_startproc
 176 0000 80B5     		push	{r7, lr}
 177              		.cfi_def_cfa_offset 8
 178              		.cfi_offset 7, -8
 179              		.cfi_offset 14, -4
 180 0002 00AF     		add	r7, sp, #0
 181              		.cfi_def_cfa_register 7
 207:.\Generated_Source\PSoC4/StripLights.c ****     extern uint8 StripLights_initvar;
 208:.\Generated_Source\PSoC4/StripLights.c ****     extern uint32 StripLights_refreshComplete;
 209:.\Generated_Source\PSoC4/StripLights.c **** 
 210:.\Generated_Source\PSoC4/StripLights.c ****     StripLights_ACTL0_REG = StripLights_DISABLE_FIFO;
 182              		.loc 1 210 0
 183 0004 174B     		ldr	r3, .L3
 184 0006 0322     		mov	r2, #3
 185 0008 1A70     		strb	r2, [r3]
 211:.\Generated_Source\PSoC4/StripLights.c ****     
 212:.\Generated_Source\PSoC4/StripLights.c ****     StripLights_Period   = StripLights_PERIOD-1;
 186              		.loc 1 212 0
 187 000a 174B     		ldr	r3, .L3+4
ARM GAS  C:\Users\vangelis\AppData\Local\Temp\ccJoPsBk.s 			page 8


 188 000c 1D22     		mov	r2, #29
 189 000e 1A70     		strb	r2, [r3]
 213:.\Generated_Source\PSoC4/StripLights.c ****     StripLights_Compare0 = StripLights_DATA_ZERO;
 190              		.loc 1 213 0
 191 0010 164B     		ldr	r3, .L3+8
 192 0012 1822     		mov	r2, #24
 193 0014 1A70     		strb	r2, [r3]
 214:.\Generated_Source\PSoC4/StripLights.c ****     StripLights_Compare1 = StripLights_DATA_ONE;
 194              		.loc 1 214 0
 195 0016 164B     		ldr	r3, .L3+12
 196 0018 0E22     		mov	r2, #14
 197 001a 1A70     		strb	r2, [r3]
 215:.\Generated_Source\PSoC4/StripLights.c ****     
 216:.\Generated_Source\PSoC4/StripLights.c ****     StripLights_CONTROL = StripLights_ENABLE;
 198              		.loc 1 216 0
 199 001c 154B     		ldr	r3, .L3+16
 200 001e 0122     		mov	r2, #1
 201 0020 1A70     		strb	r2, [r3]
 217:.\Generated_Source\PSoC4/StripLights.c ****     StripLights_MemClear(StripLights_OFF);
 202              		.loc 1 217 0
 203 0022 0023     		mov	r3, #0
 204 0024 181C     		mov	r0, r3
 205 0026 FFF7FEFF 		bl	StripLights_MemClear
 218:.\Generated_Source\PSoC4/StripLights.c ****     StripLights_CONTROL = StripLights_DISABLE;
 206              		.loc 1 218 0
 207 002a 124B     		ldr	r3, .L3+16
 208 002c 0022     		mov	r2, #0
 209 002e 1A70     		strb	r2, [r3]
 219:.\Generated_Source\PSoC4/StripLights.c ****     
 220:.\Generated_Source\PSoC4/StripLights.c ****     StripLights_SetFont( StripLights_FONT_5X7);
 210              		.loc 1 220 0
 211 0030 0020     		mov	r0, #0
 212 0032 FFF7FEFF 		bl	StripLights_SetFont
 221:.\Generated_Source\PSoC4/StripLights.c ****     
 222:.\Generated_Source\PSoC4/StripLights.c ****     /* Set no dimming, full brightness */
 223:.\Generated_Source\PSoC4/StripLights.c ****     StripLights_Dim(0); 
 213              		.loc 1 223 0
 214 0036 0020     		mov	r0, #0
 215 0038 FFF7FEFF 		bl	StripLights_Dim
 224:.\Generated_Source\PSoC4/StripLights.c **** 
 225:.\Generated_Source\PSoC4/StripLights.c ****     
 226:.\Generated_Source\PSoC4/StripLights.c ****     if(StripLights_initvar == 0)
 216              		.loc 1 226 0
 217 003c 0E4B     		ldr	r3, .L3+20
 218 003e 1B78     		ldrb	r3, [r3]
 219 0040 002B     		cmp	r3, #0
 220 0042 0AD1     		bne	.L2
 227:.\Generated_Source\PSoC4/StripLights.c ****     {
 228:.\Generated_Source\PSoC4/StripLights.c **** 
 229:.\Generated_Source\PSoC4/StripLights.c ****         StripLights_initvar = 1;
 221              		.loc 1 229 0
 222 0044 0C4B     		ldr	r3, .L3+20
 223 0046 0122     		mov	r2, #1
 224 0048 1A70     		strb	r2, [r3]
 230:.\Generated_Source\PSoC4/StripLights.c ****  
 231:.\Generated_Source\PSoC4/StripLights.c ****          /* Start and set interrupt vector */
 232:.\Generated_Source\PSoC4/StripLights.c **** 
ARM GAS  C:\Users\vangelis\AppData\Local\Temp\ccJoPsBk.s 			page 9


 233:.\Generated_Source\PSoC4/StripLights.c **** #if(StripLights_TRANSFER == StripLights_TRANSFER_ISR)
 234:.\Generated_Source\PSoC4/StripLights.c ****        {
 235:.\Generated_Source\PSoC4/StripLights.c ****            StripLights_cisr_StartEx(StripLights_CISR);
 225              		.loc 1 235 0
 226 004a 0C4B     		ldr	r3, .L3+24
 227 004c 181C     		mov	r0, r3
 228 004e FFF7FEFF 		bl	StripLights_cisr_StartEx
 236:.\Generated_Source\PSoC4/StripLights.c **** 		   StripLights_fisr_StartEx(StripLights_FISR);
 229              		.loc 1 236 0
 230 0052 0B4B     		ldr	r3, .L3+28
 231 0054 181C     		mov	r0, r3
 232 0056 FFF7FEFF 		bl	StripLights_fisr_StartEx
 233              	.L2:
 237:.\Generated_Source\PSoC4/StripLights.c ****        }
 238:.\Generated_Source\PSoC4/StripLights.c **** #endif       
 239:.\Generated_Source\PSoC4/StripLights.c ****        if(StripLights_TRANSFER == StripLights_TRANSFER_FIRMWARE)
 240:.\Generated_Source\PSoC4/StripLights.c ****        {
 241:.\Generated_Source\PSoC4/StripLights.c ****            StripLights_CONTROL = StripLights_ENABLE;    
 242:.\Generated_Source\PSoC4/StripLights.c ****        }
 243:.\Generated_Source\PSoC4/StripLights.c ****     }
 244:.\Generated_Source\PSoC4/StripLights.c ****     StripLights_refreshComplete = 1;
 234              		.loc 1 244 0
 235 005a 0A4B     		ldr	r3, .L3+32
 236 005c 0122     		mov	r2, #1
 237 005e 1A60     		str	r2, [r3]
 245:.\Generated_Source\PSoC4/StripLights.c **** }
 238              		.loc 1 245 0
 239 0060 BD46     		mov	sp, r7
 240              		@ sp needed
 241 0062 80BD     		pop	{r7, pc}
 242              	.L4:
 243              		.align	2
 244              	.L3:
 245 0064 91000F40 		.word	1074725009
 246 0068 41000F40 		.word	1074724929
 247 006c 21000F40 		.word	1074724897
 248 0070 31000F40 		.word	1074724913
 249 0074 72000F40 		.word	1074724978
 250 0078 00000000 		.word	StripLights_initvar
 251 007c 00000000 		.word	StripLights_CISR
 252 0080 00000000 		.word	StripLights_FISR
 253 0084 00000000 		.word	StripLights_refreshComplete
 254              		.cfi_endproc
 255              	.LFE33:
 256              		.size	StripLights_Start, .-StripLights_Start
 257              		.section	.text.StripLights_Trigger,"ax",%progbits
 258              		.align	2
 259              		.global	StripLights_Trigger
 260              		.code	16
 261              		.thumb_func
 262              		.type	StripLights_Trigger, %function
 263              	StripLights_Trigger:
 264              	.LFB34:
 246:.\Generated_Source\PSoC4/StripLights.c **** 
 247:.\Generated_Source\PSoC4/StripLights.c **** 
 248:.\Generated_Source\PSoC4/StripLights.c **** /*******************************************************************************
 249:.\Generated_Source\PSoC4/StripLights.c **** * Function Name: StripLights_Trigger
ARM GAS  C:\Users\vangelis\AppData\Local\Temp\ccJoPsBk.s 			page 10


 250:.\Generated_Source\PSoC4/StripLights.c **** ********************************************************************************
 251:.\Generated_Source\PSoC4/StripLights.c **** * Summary:
 252:.\Generated_Source\PSoC4/StripLights.c **** *   Update the LEDs with graphics memory.
 253:.\Generated_Source\PSoC4/StripLights.c **** *
 254:.\Generated_Source\PSoC4/StripLights.c **** * Parameters:  
 255:.\Generated_Source\PSoC4/StripLights.c **** *  void  
 256:.\Generated_Source\PSoC4/StripLights.c **** *
 257:.\Generated_Source\PSoC4/StripLights.c **** * Return: 
 258:.\Generated_Source\PSoC4/StripLights.c **** *  void
 259:.\Generated_Source\PSoC4/StripLights.c **** *
 260:.\Generated_Source\PSoC4/StripLights.c **** *******************************************************************************/
 261:.\Generated_Source\PSoC4/StripLights.c **** void StripLights_Trigger(uint32 rst)
 262:.\Generated_Source\PSoC4/StripLights.c **** {
 265              		.loc 1 262 0
 266              		.cfi_startproc
 267 0000 80B5     		push	{r7, lr}
 268              		.cfi_def_cfa_offset 8
 269              		.cfi_offset 7, -8
 270              		.cfi_offset 14, -4
 271 0002 84B0     		sub	sp, sp, #16
 272              		.cfi_def_cfa_offset 24
 273 0004 00AF     		add	r7, sp, #0
 274              		.cfi_def_cfa_register 7
 275 0006 7860     		str	r0, [r7, #4]
 263:.\Generated_Source\PSoC4/StripLights.c ****     uint32 color;
 264:.\Generated_Source\PSoC4/StripLights.c ****     
 265:.\Generated_Source\PSoC4/StripLights.c ****     if(rst) 
 276              		.loc 1 265 0
 277 0008 7B68     		ldr	r3, [r7, #4]
 278 000a 002B     		cmp	r3, #0
 279 000c 05D0     		beq	.L6
 266:.\Generated_Source\PSoC4/StripLights.c ****     {
 267:.\Generated_Source\PSoC4/StripLights.c ****         StripLights_row = 0;  /* Reset the row */
 280              		.loc 1 267 0
 281 000e 1B4B     		ldr	r3, .L7
 282 0010 0022     		mov	r2, #0
 283 0012 1A60     		str	r2, [r3]
 268:.\Generated_Source\PSoC4/StripLights.c ****         StripLights_Channel = 0;
 284              		.loc 1 268 0
 285 0014 1A4B     		ldr	r3, .L7+4
 286 0016 0022     		mov	r2, #0
 287 0018 1A70     		strb	r2, [r3]
 288              	.L6:
 269:.\Generated_Source\PSoC4/StripLights.c ****     }
 270:.\Generated_Source\PSoC4/StripLights.c ****     
 271:.\Generated_Source\PSoC4/StripLights.c ****     #if(StripLights_MEMORY_TYPE == StripLights_MEMORY_RGB)
 272:.\Generated_Source\PSoC4/StripLights.c ****        color = StripLights_ledArray[StripLights_row][0];
 289              		.loc 1 272 0
 290 001a 184B     		ldr	r3, .L7
 291 001c 1A68     		ldr	r2, [r3]
 292 001e 1949     		ldr	r1, .L7+8
 293 0020 131C     		mov	r3, r2
 294 0022 5B00     		lsl	r3, r3, #1
 295 0024 9B18     		add	r3, r3, r2
 296 0026 1B01     		lsl	r3, r3, #4
 297 0028 5B58     		ldr	r3, [r3, r1]
 298 002a FB60     		str	r3, [r7, #12]
ARM GAS  C:\Users\vangelis\AppData\Local\Temp\ccJoPsBk.s 			page 11


 273:.\Generated_Source\PSoC4/StripLights.c ****     #else  /* Else use lookup table */
 274:.\Generated_Source\PSoC4/StripLights.c ****        color = StripLights_CLUT[ (StripLights_ledArray[StripLights_row][0]) ];
 275:.\Generated_Source\PSoC4/StripLights.c ****     #endif
 276:.\Generated_Source\PSoC4/StripLights.c ****     
 277:.\Generated_Source\PSoC4/StripLights.c ****      color = (color >> StripLights_DimShift) & StripLights_DimMask;
 299              		.loc 1 277 0
 300 002c 164B     		ldr	r3, .L7+12
 301 002e 1B68     		ldr	r3, [r3]
 302 0030 1A1C     		mov	r2, r3
 303 0032 FB68     		ldr	r3, [r7, #12]
 304 0034 D340     		lsr	r3, r3, r2
 305 0036 1A1C     		mov	r2, r3
 306 0038 144B     		ldr	r3, .L7+16
 307 003a 1B68     		ldr	r3, [r3]
 308 003c 1340     		and	r3, r2
 309 003e FB60     		str	r3, [r7, #12]
 278:.\Generated_Source\PSoC4/StripLights.c ****      
 279:.\Generated_Source\PSoC4/StripLights.c ****     StripLights_DATA = (uint8)(color & 0x000000FF);  // Write Red
 310              		.loc 1 279 0
 311 0040 134B     		ldr	r3, .L7+20
 312 0042 FA68     		ldr	r2, [r7, #12]
 313 0044 D2B2     		uxtb	r2, r2
 314 0046 1A70     		strb	r2, [r3]
 280:.\Generated_Source\PSoC4/StripLights.c ****     color = color >> 8;
 315              		.loc 1 280 0
 316 0048 FB68     		ldr	r3, [r7, #12]
 317 004a 1B0A     		lsr	r3, r3, #8
 318 004c FB60     		str	r3, [r7, #12]
 281:.\Generated_Source\PSoC4/StripLights.c ****     StripLights_DATA = (uint8)(color & 0x000000FF);  // Write green
 319              		.loc 1 281 0
 320 004e 104B     		ldr	r3, .L7+20
 321 0050 FA68     		ldr	r2, [r7, #12]
 322 0052 D2B2     		uxtb	r2, r2
 323 0054 1A70     		strb	r2, [r3]
 282:.\Generated_Source\PSoC4/StripLights.c ****     color = color >> 8;
 324              		.loc 1 282 0
 325 0056 FB68     		ldr	r3, [r7, #12]
 326 0058 1B0A     		lsr	r3, r3, #8
 327 005a FB60     		str	r3, [r7, #12]
 283:.\Generated_Source\PSoC4/StripLights.c ****     StripLights_DATA = (uint8)(color & 0x000000FF);  // Write green
 328              		.loc 1 283 0
 329 005c 0C4B     		ldr	r3, .L7+20
 330 005e FA68     		ldr	r2, [r7, #12]
 331 0060 D2B2     		uxtb	r2, r2
 332 0062 1A70     		strb	r2, [r3]
 284:.\Generated_Source\PSoC4/StripLights.c ****     
 285:.\Generated_Source\PSoC4/StripLights.c ****     StripLights_ledIndex = 1;
 333              		.loc 1 285 0
 334 0064 0B4B     		ldr	r3, .L7+24
 335 0066 0122     		mov	r2, #1
 336 0068 1A60     		str	r2, [r3]
 286:.\Generated_Source\PSoC4/StripLights.c ****  //   StripLights_CONTROL = StripLights_ENABLE | StripLights_FIFO_IRQ_EN; 
 287:.\Generated_Source\PSoC4/StripLights.c **** 	
 288:.\Generated_Source\PSoC4/StripLights.c **** 	StripLights_CONTROL = StripLights_ENABLE | StripLights_XFRCMPT_IRQ_EN | StripLights_FIFO_IRQ_EN; 
 337              		.loc 1 288 0
 338 006a 0B4B     		ldr	r3, .L7+28
 339 006c 1922     		mov	r2, #25
ARM GAS  C:\Users\vangelis\AppData\Local\Temp\ccJoPsBk.s 			page 12


 340 006e 1A70     		strb	r2, [r3]
 289:.\Generated_Source\PSoC4/StripLights.c ****     StripLights_refreshComplete = 0;
 341              		.loc 1 289 0
 342 0070 0A4B     		ldr	r3, .L7+32
 343 0072 0022     		mov	r2, #0
 344 0074 1A60     		str	r2, [r3]
 290:.\Generated_Source\PSoC4/StripLights.c **** }
 345              		.loc 1 290 0
 346 0076 BD46     		mov	sp, r7
 347 0078 04B0     		add	sp, sp, #16
 348              		@ sp needed
 349 007a 80BD     		pop	{r7, pc}
 350              	.L8:
 351              		.align	2
 352              	.L7:
 353 007c 00000000 		.word	StripLights_row
 354 0080 70000F40 		.word	1074724976
 355 0084 00000000 		.word	StripLights_ledArray
 356 0088 00000000 		.word	StripLights_DimShift
 357 008c 00000000 		.word	StripLights_DimMask
 358 0090 42000F40 		.word	1074724930
 359 0094 00000000 		.word	StripLights_ledIndex
 360 0098 72000F40 		.word	1074724978
 361 009c 00000000 		.word	StripLights_refreshComplete
 362              		.cfi_endproc
 363              	.LFE34:
 364              		.size	StripLights_Trigger, .-StripLights_Trigger
 365              		.section	.text.StripLights_Ready,"ax",%progbits
 366              		.align	2
 367              		.global	StripLights_Ready
 368              		.code	16
 369              		.thumb_func
 370              		.type	StripLights_Ready, %function
 371              	StripLights_Ready:
 372              	.LFB35:
 291:.\Generated_Source\PSoC4/StripLights.c **** 
 292:.\Generated_Source\PSoC4/StripLights.c **** /*******************************************************************************
 293:.\Generated_Source\PSoC4/StripLights.c **** * Function Name: StripLights_Ready
 294:.\Generated_Source\PSoC4/StripLights.c **** ********************************************************************************
 295:.\Generated_Source\PSoC4/StripLights.c **** * Summary:
 296:.\Generated_Source\PSoC4/StripLights.c **** *  Checks to see if transfer is complete.
 297:.\Generated_Source\PSoC4/StripLights.c **** *
 298:.\Generated_Source\PSoC4/StripLights.c **** * Parameters:  
 299:.\Generated_Source\PSoC4/StripLights.c **** *  none  
 300:.\Generated_Source\PSoC4/StripLights.c **** *
 301:.\Generated_Source\PSoC4/StripLights.c **** * Return: 
 302:.\Generated_Source\PSoC4/StripLights.c **** *  Zero if not complete, non-zero if transfer complete.
 303:.\Generated_Source\PSoC4/StripLights.c **** *
 304:.\Generated_Source\PSoC4/StripLights.c **** *******************************************************************************/
 305:.\Generated_Source\PSoC4/StripLights.c **** uint32 StripLights_Ready(void)
 306:.\Generated_Source\PSoC4/StripLights.c **** {
 373              		.loc 1 306 0
 374              		.cfi_startproc
 375 0000 80B5     		push	{r7, lr}
 376              		.cfi_def_cfa_offset 8
 377              		.cfi_offset 7, -8
 378              		.cfi_offset 14, -4
ARM GAS  C:\Users\vangelis\AppData\Local\Temp\ccJoPsBk.s 			page 13


 379 0002 00AF     		add	r7, sp, #0
 380              		.cfi_def_cfa_register 7
 307:.\Generated_Source\PSoC4/StripLights.c ****     if(StripLights_refreshComplete )
 381              		.loc 1 307 0
 382 0004 064B     		ldr	r3, .L12
 383 0006 1B68     		ldr	r3, [r3]
 384 0008 002B     		cmp	r3, #0
 385 000a 04D0     		beq	.L10
 308:.\Generated_Source\PSoC4/StripLights.c ****     {
 309:.\Generated_Source\PSoC4/StripLights.c ****         StripLights_CONTROL = StripLights_DISABLE;
 386              		.loc 1 309 0
 387 000c 054B     		ldr	r3, .L12+4
 388 000e 0022     		mov	r2, #0
 389 0010 1A70     		strb	r2, [r3]
 310:.\Generated_Source\PSoC4/StripLights.c ****         return((uint32)1);
 390              		.loc 1 310 0
 391 0012 0123     		mov	r3, #1
 392 0014 00E0     		b	.L11
 393              	.L10:
 311:.\Generated_Source\PSoC4/StripLights.c ****     }
 312:.\Generated_Source\PSoC4/StripLights.c ****     else
 313:.\Generated_Source\PSoC4/StripLights.c ****     {
 314:.\Generated_Source\PSoC4/StripLights.c ****          return((uint32)0);
 394              		.loc 1 314 0
 395 0016 0023     		mov	r3, #0
 396              	.L11:
 315:.\Generated_Source\PSoC4/StripLights.c ****     }
 316:.\Generated_Source\PSoC4/StripLights.c **** }
 397              		.loc 1 316 0
 398 0018 181C     		mov	r0, r3
 399 001a BD46     		mov	sp, r7
 400              		@ sp needed
 401 001c 80BD     		pop	{r7, pc}
 402              	.L13:
 403 001e C046     		.align	2
 404              	.L12:
 405 0020 00000000 		.word	StripLights_refreshComplete
 406 0024 72000F40 		.word	1074724978
 407              		.cfi_endproc
 408              	.LFE35:
 409              		.size	StripLights_Ready, .-StripLights_Ready
 410              		.section	.text.StripLights_Stop,"ax",%progbits
 411              		.align	2
 412              		.global	StripLights_Stop
 413              		.code	16
 414              		.thumb_func
 415              		.type	StripLights_Stop, %function
 416              	StripLights_Stop:
 417              	.LFB36:
 317:.\Generated_Source\PSoC4/StripLights.c **** 
 318:.\Generated_Source\PSoC4/StripLights.c **** 
 319:.\Generated_Source\PSoC4/StripLights.c **** /*******************************************************************************
 320:.\Generated_Source\PSoC4/StripLights.c **** * Function Name: StripLights_Stop
 321:.\Generated_Source\PSoC4/StripLights.c **** ********************************************************************************
 322:.\Generated_Source\PSoC4/StripLights.c **** * Summary:
 323:.\Generated_Source\PSoC4/StripLights.c **** *  Stop all transfers.
 324:.\Generated_Source\PSoC4/StripLights.c **** *
ARM GAS  C:\Users\vangelis\AppData\Local\Temp\ccJoPsBk.s 			page 14


 325:.\Generated_Source\PSoC4/StripLights.c **** * Parameters:  
 326:.\Generated_Source\PSoC4/StripLights.c **** *  None 
 327:.\Generated_Source\PSoC4/StripLights.c **** *
 328:.\Generated_Source\PSoC4/StripLights.c **** * Return: 
 329:.\Generated_Source\PSoC4/StripLights.c **** *  void
 330:.\Generated_Source\PSoC4/StripLights.c **** *
 331:.\Generated_Source\PSoC4/StripLights.c **** *******************************************************************************/
 332:.\Generated_Source\PSoC4/StripLights.c **** void StripLights_Stop()
 333:.\Generated_Source\PSoC4/StripLights.c **** {
 418              		.loc 1 333 0
 419              		.cfi_startproc
 420 0000 80B5     		push	{r7, lr}
 421              		.cfi_def_cfa_offset 8
 422              		.cfi_offset 7, -8
 423              		.cfi_offset 14, -4
 424 0002 00AF     		add	r7, sp, #0
 425              		.cfi_def_cfa_register 7
 334:.\Generated_Source\PSoC4/StripLights.c **** 
 335:.\Generated_Source\PSoC4/StripLights.c ****     StripLights_CONTROL = StripLights_DISABLE;
 426              		.loc 1 335 0
 427 0004 024B     		ldr	r3, .L15
 428 0006 0022     		mov	r2, #0
 429 0008 1A70     		strb	r2, [r3]
 336:.\Generated_Source\PSoC4/StripLights.c **** }
 430              		.loc 1 336 0
 431 000a BD46     		mov	sp, r7
 432              		@ sp needed
 433 000c 80BD     		pop	{r7, pc}
 434              	.L16:
 435 000e C046     		.align	2
 436              	.L15:
 437 0010 72000F40 		.word	1074724978
 438              		.cfi_endproc
 439              	.LFE36:
 440              		.size	StripLights_Stop, .-StripLights_Stop
 441              		.global	__aeabi_uidivmod
 442              		.section	.text.StripLights_ColorInc,"ax",%progbits
 443              		.align	2
 444              		.global	StripLights_ColorInc
 445              		.code	16
 446              		.thumb_func
 447              		.type	StripLights_ColorInc, %function
 448              	StripLights_ColorInc:
 449              	.LFB37:
 337:.\Generated_Source\PSoC4/StripLights.c **** 
 338:.\Generated_Source\PSoC4/StripLights.c **** 
 339:.\Generated_Source\PSoC4/StripLights.c **** /*******************************************************************************
 340:.\Generated_Source\PSoC4/StripLights.c **** * Function Name: StripLights_ColorInc
 341:.\Generated_Source\PSoC4/StripLights.c **** ********************************************************************************
 342:.\Generated_Source\PSoC4/StripLights.c **** * Summary:
 343:.\Generated_Source\PSoC4/StripLights.c **** *  Increment color throught the color lookup table.
 344:.\Generated_Source\PSoC4/StripLights.c **** *
 345:.\Generated_Source\PSoC4/StripLights.c **** * Parameters:  
 346:.\Generated_Source\PSoC4/StripLights.c **** *  uint32 incValue: Increment through color table by incValue. 
 347:.\Generated_Source\PSoC4/StripLights.c **** *
 348:.\Generated_Source\PSoC4/StripLights.c **** * Return: Color at next location.
 349:.\Generated_Source\PSoC4/StripLights.c **** *  
ARM GAS  C:\Users\vangelis\AppData\Local\Temp\ccJoPsBk.s 			page 15


 350:.\Generated_Source\PSoC4/StripLights.c **** *
 351:.\Generated_Source\PSoC4/StripLights.c **** *******************************************************************************/
 352:.\Generated_Source\PSoC4/StripLights.c **** uint32 StripLights_ColorInc(uint32 incValue)
 353:.\Generated_Source\PSoC4/StripLights.c **** {
 450              		.loc 1 353 0
 451              		.cfi_startproc
 452 0000 80B5     		push	{r7, lr}
 453              		.cfi_def_cfa_offset 8
 454              		.cfi_offset 7, -8
 455              		.cfi_offset 14, -4
 456 0002 84B0     		sub	sp, sp, #16
 457              		.cfi_def_cfa_offset 24
 458 0004 00AF     		add	r7, sp, #0
 459              		.cfi_def_cfa_register 7
 460 0006 7860     		str	r0, [r7, #4]
 354:.\Generated_Source\PSoC4/StripLights.c ****     uint32 color;
 355:.\Generated_Source\PSoC4/StripLights.c ****     extern const uint32 StripLights_CLUT[];
 356:.\Generated_Source\PSoC4/StripLights.c ****     static uint32 colorIndex = 0;
 357:.\Generated_Source\PSoC4/StripLights.c ****     
 358:.\Generated_Source\PSoC4/StripLights.c ****     colorIndex += incValue;
 461              		.loc 1 358 0
 462 0008 0D4B     		ldr	r3, .L19
 463 000a 1A68     		ldr	r2, [r3]
 464 000c 7B68     		ldr	r3, [r7, #4]
 465 000e D218     		add	r2, r2, r3
 466 0010 0B4B     		ldr	r3, .L19
 467 0012 1A60     		str	r2, [r3]
 359:.\Generated_Source\PSoC4/StripLights.c ****     colorIndex = colorIndex % StripLights_COLOR_WHEEL_SIZE;
 468              		.loc 1 359 0
 469 0014 0A4B     		ldr	r3, .L19
 470 0016 1B68     		ldr	r3, [r3]
 471 0018 181C     		mov	r0, r3
 472 001a 1821     		mov	r1, #24
 473 001c FFF7FEFF 		bl	__aeabi_uidivmod
 474 0020 0B1C     		mov	r3, r1
 475 0022 1A1C     		mov	r2, r3
 476 0024 064B     		ldr	r3, .L19
 477 0026 1A60     		str	r2, [r3]
 360:.\Generated_Source\PSoC4/StripLights.c **** 
 361:.\Generated_Source\PSoC4/StripLights.c ****     #if(StripLights_MEMORY_TYPE == StripLights_MEMORY_RGB)
 362:.\Generated_Source\PSoC4/StripLights.c ****        color = StripLights_CLUT[ colorIndex ];
 478              		.loc 1 362 0
 479 0028 054B     		ldr	r3, .L19
 480 002a 1A68     		ldr	r2, [r3]
 481 002c 054B     		ldr	r3, .L19+4
 482 002e 9200     		lsl	r2, r2, #2
 483 0030 D358     		ldr	r3, [r2, r3]
 484 0032 FB60     		str	r3, [r7, #12]
 363:.\Generated_Source\PSoC4/StripLights.c ****     #else
 364:.\Generated_Source\PSoC4/StripLights.c ****         color = colorIndex;
 365:.\Generated_Source\PSoC4/StripLights.c ****     #endif
 366:.\Generated_Source\PSoC4/StripLights.c **** 
 367:.\Generated_Source\PSoC4/StripLights.c **** 
 368:.\Generated_Source\PSoC4/StripLights.c ****     return(color);
 485              		.loc 1 368 0
 486 0034 FB68     		ldr	r3, [r7, #12]
 369:.\Generated_Source\PSoC4/StripLights.c **** }
ARM GAS  C:\Users\vangelis\AppData\Local\Temp\ccJoPsBk.s 			page 16


 487              		.loc 1 369 0
 488 0036 181C     		mov	r0, r3
 489 0038 BD46     		mov	sp, r7
 490 003a 04B0     		add	sp, sp, #16
 491              		@ sp needed
 492 003c 80BD     		pop	{r7, pc}
 493              	.L20:
 494 003e C046     		.align	2
 495              	.L19:
 496 0040 0C000000 		.word	colorIndex.5752
 497 0044 00000000 		.word	StripLights_CLUT
 498              		.cfi_endproc
 499              	.LFE37:
 500              		.size	StripLights_ColorInc, .-StripLights_ColorInc
 501              		.section	.text.StripLights_FISR,"ax",%progbits
 502              		.align	2
 503              		.global	StripLights_FISR
 504              		.code	16
 505              		.thumb_func
 506              		.type	StripLights_FISR, %function
 507              	StripLights_FISR:
 508              	.LFB38:
 370:.\Generated_Source\PSoC4/StripLights.c **** /*****************************************************************************
 371:.\Generated_Source\PSoC4/StripLights.c **** * Function Name: StripLights_FISR
 372:.\Generated_Source\PSoC4/StripLights.c **** ******************************************************************************
 373:.\Generated_Source\PSoC4/StripLights.c **** *
 374:.\Generated_Source\PSoC4/StripLights.c **** * Summary:
 375:.\Generated_Source\PSoC4/StripLights.c **** *  Interrupt service handler for data transfer for each LED 
 376:.\Generated_Source\PSoC4/StripLights.c **** *
 377:.\Generated_Source\PSoC4/StripLights.c **** * Parameters:  
 378:.\Generated_Source\PSoC4/StripLights.c **** *  void
 379:.\Generated_Source\PSoC4/StripLights.c **** *
 380:.\Generated_Source\PSoC4/StripLights.c **** * Return: 
 381:.\Generated_Source\PSoC4/StripLights.c **** *  void 
 382:.\Generated_Source\PSoC4/StripLights.c **** *
 383:.\Generated_Source\PSoC4/StripLights.c **** * Reentrant: 
 384:.\Generated_Source\PSoC4/StripLights.c **** *  No
 385:.\Generated_Source\PSoC4/StripLights.c **** *
 386:.\Generated_Source\PSoC4/StripLights.c **** *****************************************************************************/
 387:.\Generated_Source\PSoC4/StripLights.c **** CY_ISR( StripLights_FISR)
 388:.\Generated_Source\PSoC4/StripLights.c **** {
 509              		.loc 1 388 0
 510              		.cfi_startproc
 511 0000 80B5     		push	{r7, lr}
 512              		.cfi_def_cfa_offset 8
 513              		.cfi_offset 7, -8
 514              		.cfi_offset 14, -4
 515 0002 00AF     		add	r7, sp, #0
 516              		.cfi_def_cfa_register 7
 389:.\Generated_Source\PSoC4/StripLights.c ****     extern uint32  StripLights_DimMask;
 390:.\Generated_Source\PSoC4/StripLights.c ****     extern uint32  StripLights_DimShift;
 391:.\Generated_Source\PSoC4/StripLights.c ****     uint32 static color;
 392:.\Generated_Source\PSoC4/StripLights.c **** 
 393:.\Generated_Source\PSoC4/StripLights.c ****     if(StripLights_ledIndex < StripLights_ARRAY_COLS)
 517              		.loc 1 393 0
 518 0004 1E4B     		ldr	r3, .L24
 519 0006 1B68     		ldr	r3, [r3]
ARM GAS  C:\Users\vangelis\AppData\Local\Temp\ccJoPsBk.s 			page 17


 520 0008 0B2B     		cmp	r3, #11
 521 000a 34D8     		bhi	.L22
 394:.\Generated_Source\PSoC4/StripLights.c ****     {
 395:.\Generated_Source\PSoC4/StripLights.c ****         #if(StripLights_MEMORY_TYPE == StripLights_MEMORY_RGB)
 396:.\Generated_Source\PSoC4/StripLights.c ****             color = StripLights_ledArray[StripLights_row][StripLights_ledIndex++];
 522              		.loc 1 396 0
 523 000c 1D4B     		ldr	r3, .L24+4
 524 000e 1968     		ldr	r1, [r3]
 525 0010 1B4B     		ldr	r3, .L24
 526 0012 1A68     		ldr	r2, [r3]
 527 0014 501C     		add	r0, r2, #1
 528 0016 1A4B     		ldr	r3, .L24
 529 0018 1860     		str	r0, [r3]
 530 001a 1B48     		ldr	r0, .L24+8
 531 001c 0B1C     		mov	r3, r1
 532 001e 5B00     		lsl	r3, r3, #1
 533 0020 5B18     		add	r3, r3, r1
 534 0022 9B00     		lsl	r3, r3, #2
 535 0024 9B18     		add	r3, r3, r2
 536 0026 9B00     		lsl	r3, r3, #2
 537 0028 1A58     		ldr	r2, [r3, r0]
 538 002a 184B     		ldr	r3, .L24+12
 539 002c 1A60     		str	r2, [r3]
 397:.\Generated_Source\PSoC4/StripLights.c ****         #else  /* Else use lookup table */
 398:.\Generated_Source\PSoC4/StripLights.c ****             color = StripLights_CLUT[ (StripLights_ledArray[StripLights_row][StripLights_ledIndex++
 399:.\Generated_Source\PSoC4/StripLights.c ****         #endif
 400:.\Generated_Source\PSoC4/StripLights.c **** 
 401:.\Generated_Source\PSoC4/StripLights.c ****         color = (color >> StripLights_DimShift) & StripLights_DimMask;  
 540              		.loc 1 401 0
 541 002e 174B     		ldr	r3, .L24+12
 542 0030 1A68     		ldr	r2, [r3]
 543 0032 174B     		ldr	r3, .L24+16
 544 0034 1B68     		ldr	r3, [r3]
 545 0036 DA40     		lsr	r2, r2, r3
 546 0038 164B     		ldr	r3, .L24+20
 547 003a 1B68     		ldr	r3, [r3]
 548 003c 1A40     		and	r2, r3
 549 003e 134B     		ldr	r3, .L24+12
 550 0040 1A60     		str	r2, [r3]
 402:.\Generated_Source\PSoC4/StripLights.c **** 
 403:.\Generated_Source\PSoC4/StripLights.c ****         StripLights_DATA = (uint8)(color & 0x000000FF);  // Write Green
 551              		.loc 1 403 0
 552 0042 154A     		ldr	r2, .L24+24
 553 0044 114B     		ldr	r3, .L24+12
 554 0046 1B68     		ldr	r3, [r3]
 555 0048 DBB2     		uxtb	r3, r3
 556 004a 1370     		strb	r3, [r2]
 404:.\Generated_Source\PSoC4/StripLights.c ****         color = color >> 8;
 557              		.loc 1 404 0
 558 004c 0F4B     		ldr	r3, .L24+12
 559 004e 1B68     		ldr	r3, [r3]
 560 0050 1A0A     		lsr	r2, r3, #8
 561 0052 0E4B     		ldr	r3, .L24+12
 562 0054 1A60     		str	r2, [r3]
 405:.\Generated_Source\PSoC4/StripLights.c ****         StripLights_DATA = (uint8)(color & 0x000000FF);  // Write Red
 563              		.loc 1 405 0
 564 0056 104A     		ldr	r2, .L24+24
ARM GAS  C:\Users\vangelis\AppData\Local\Temp\ccJoPsBk.s 			page 18


 565 0058 0C4B     		ldr	r3, .L24+12
 566 005a 1B68     		ldr	r3, [r3]
 567 005c DBB2     		uxtb	r3, r3
 568 005e 1370     		strb	r3, [r2]
 406:.\Generated_Source\PSoC4/StripLights.c ****         color = color >> 8;
 569              		.loc 1 406 0
 570 0060 0A4B     		ldr	r3, .L24+12
 571 0062 1B68     		ldr	r3, [r3]
 572 0064 1A0A     		lsr	r2, r3, #8
 573 0066 094B     		ldr	r3, .L24+12
 574 0068 1A60     		str	r2, [r3]
 407:.\Generated_Source\PSoC4/StripLights.c ****         StripLights_DATA = (uint8)(color & 0x000000FF);  // Write Blue
 575              		.loc 1 407 0
 576 006a 0B4A     		ldr	r2, .L24+24
 577 006c 074B     		ldr	r3, .L24+12
 578 006e 1B68     		ldr	r3, [r3]
 579 0070 DBB2     		uxtb	r3, r3
 580 0072 1370     		strb	r3, [r2]
 581 0074 02E0     		b	.L21
 582              	.L22:
 408:.\Generated_Source\PSoC4/StripLights.c ****     }
 409:.\Generated_Source\PSoC4/StripLights.c ****     else 
 410:.\Generated_Source\PSoC4/StripLights.c ****     {
 411:.\Generated_Source\PSoC4/StripLights.c ****          StripLights_CONTROL = StripLights_ENABLE | StripLights_XFRCMPT_IRQ_EN; 
 583              		.loc 1 411 0
 584 0076 094B     		ldr	r3, .L24+28
 585 0078 1122     		mov	r2, #17
 586 007a 1A70     		strb	r2, [r3]
 587              	.L21:
 412:.\Generated_Source\PSoC4/StripLights.c ****     }
 413:.\Generated_Source\PSoC4/StripLights.c **** 
 414:.\Generated_Source\PSoC4/StripLights.c **** }
 588              		.loc 1 414 0
 589 007c BD46     		mov	sp, r7
 590              		@ sp needed
 591 007e 80BD     		pop	{r7, pc}
 592              	.L25:
 593              		.align	2
 594              	.L24:
 595 0080 00000000 		.word	StripLights_ledIndex
 596 0084 00000000 		.word	StripLights_row
 597 0088 00000000 		.word	StripLights_ledArray
 598 008c 10000000 		.word	color.5759
 599 0090 00000000 		.word	StripLights_DimShift
 600 0094 00000000 		.word	StripLights_DimMask
 601 0098 42000F40 		.word	1074724930
 602 009c 72000F40 		.word	1074724978
 603              		.cfi_endproc
 604              	.LFE38:
 605              		.size	StripLights_FISR, .-StripLights_FISR
 606              		.section	.text.StripLights_CISR,"ax",%progbits
 607              		.align	2
 608              		.global	StripLights_CISR
 609              		.code	16
 610              		.thumb_func
 611              		.type	StripLights_CISR, %function
 612              	StripLights_CISR:
ARM GAS  C:\Users\vangelis\AppData\Local\Temp\ccJoPsBk.s 			page 19


 613              	.LFB39:
 415:.\Generated_Source\PSoC4/StripLights.c **** 
 416:.\Generated_Source\PSoC4/StripLights.c **** /*****************************************************************************
 417:.\Generated_Source\PSoC4/StripLights.c **** * Function Name: StripLights_CISR
 418:.\Generated_Source\PSoC4/StripLights.c **** ******************************************************************************
 419:.\Generated_Source\PSoC4/StripLights.c **** *
 420:.\Generated_Source\PSoC4/StripLights.c **** * Summary:
 421:.\Generated_Source\PSoC4/StripLights.c **** *  Interrupt service handler after each row is complete.
 422:.\Generated_Source\PSoC4/StripLights.c **** *
 423:.\Generated_Source\PSoC4/StripLights.c **** * Parameters:  
 424:.\Generated_Source\PSoC4/StripLights.c **** *  void
 425:.\Generated_Source\PSoC4/StripLights.c **** *
 426:.\Generated_Source\PSoC4/StripLights.c **** * Return: 
 427:.\Generated_Source\PSoC4/StripLights.c **** *  void 
 428:.\Generated_Source\PSoC4/StripLights.c **** *
 429:.\Generated_Source\PSoC4/StripLights.c **** * Reentrant: 
 430:.\Generated_Source\PSoC4/StripLights.c **** *  No
 431:.\Generated_Source\PSoC4/StripLights.c **** *
 432:.\Generated_Source\PSoC4/StripLights.c **** *****************************************************************************/
 433:.\Generated_Source\PSoC4/StripLights.c **** CY_ISR( StripLights_CISR)
 434:.\Generated_Source\PSoC4/StripLights.c **** {
 614              		.loc 1 434 0
 615              		.cfi_startproc
 616 0000 80B5     		push	{r7, lr}
 617              		.cfi_def_cfa_offset 8
 618              		.cfi_offset 7, -8
 619              		.cfi_offset 14, -4
 620 0002 00AF     		add	r7, sp, #0
 621              		.cfi_def_cfa_register 7
 435:.\Generated_Source\PSoC4/StripLights.c ****     extern uint32  StripLights_DimMask;
 436:.\Generated_Source\PSoC4/StripLights.c ****     extern uint32  StripLights_DimShift;
 437:.\Generated_Source\PSoC4/StripLights.c ****     uint32 static color;
 438:.\Generated_Source\PSoC4/StripLights.c ****     extern uint32 StripLights_refreshComplete;
 439:.\Generated_Source\PSoC4/StripLights.c **** 
 440:.\Generated_Source\PSoC4/StripLights.c **** 	StripLights_CONTROL = StripLights_ENABLE |StripLights_NEXT_ROW;
 622              		.loc 1 440 0
 623 0004 244B     		ldr	r3, .L29
 624 0006 2122     		mov	r2, #33
 625 0008 1A70     		strb	r2, [r3]
 441:.\Generated_Source\PSoC4/StripLights.c ****     StripLights_row++;
 626              		.loc 1 441 0
 627 000a 244B     		ldr	r3, .L29+4
 628 000c 1B68     		ldr	r3, [r3]
 629 000e 5A1C     		add	r2, r3, #1
 630 0010 224B     		ldr	r3, .L29+4
 631 0012 1A60     		str	r2, [r3]
 442:.\Generated_Source\PSoC4/StripLights.c ****     if( StripLights_row < StripLights_ARRAY_ROWS)  /* More Rows to do  */
 632              		.loc 1 442 0
 633 0014 214B     		ldr	r3, .L29+4
 634 0016 1B68     		ldr	r3, [r3]
 635 0018 0B2B     		cmp	r3, #11
 636 001a 38D8     		bhi	.L27
 443:.\Generated_Source\PSoC4/StripLights.c ****     {
 444:.\Generated_Source\PSoC4/StripLights.c ****         StripLights_Channel = StripLights_row;  
 637              		.loc 1 444 0
 638 001c 204A     		ldr	r2, .L29+8
 639 001e 1F4B     		ldr	r3, .L29+4
ARM GAS  C:\Users\vangelis\AppData\Local\Temp\ccJoPsBk.s 			page 20


 640 0020 1B68     		ldr	r3, [r3]
 641 0022 DBB2     		uxtb	r3, r3
 642 0024 1370     		strb	r3, [r2]
 445:.\Generated_Source\PSoC4/StripLights.c **** 
 446:.\Generated_Source\PSoC4/StripLights.c **** 		#if(StripLights_MEMORY_TYPE == StripLights_MEMORY_RGB)
 447:.\Generated_Source\PSoC4/StripLights.c ****              color = StripLights_ledArray[StripLights_row][0];
 643              		.loc 1 447 0
 644 0026 1D4B     		ldr	r3, .L29+4
 645 0028 1A68     		ldr	r2, [r3]
 646 002a 1E49     		ldr	r1, .L29+12
 647 002c 131C     		mov	r3, r2
 648 002e 5B00     		lsl	r3, r3, #1
 649 0030 9B18     		add	r3, r3, r2
 650 0032 1B01     		lsl	r3, r3, #4
 651 0034 5A58     		ldr	r2, [r3, r1]
 652 0036 1C4B     		ldr	r3, .L29+16
 653 0038 1A60     		str	r2, [r3]
 448:.\Generated_Source\PSoC4/StripLights.c ****         #else  /* Else use lookup table */
 449:.\Generated_Source\PSoC4/StripLights.c ****              color = StripLights_CLUT[ (StripLights_ledArray[StripLights_row][0]) ];
 450:.\Generated_Source\PSoC4/StripLights.c ****         #endif
 451:.\Generated_Source\PSoC4/StripLights.c **** 
 452:.\Generated_Source\PSoC4/StripLights.c ****         color = (color >> StripLights_DimShift) & StripLights_DimMask;
 654              		.loc 1 452 0
 655 003a 1B4B     		ldr	r3, .L29+16
 656 003c 1A68     		ldr	r2, [r3]
 657 003e 1B4B     		ldr	r3, .L29+20
 658 0040 1B68     		ldr	r3, [r3]
 659 0042 DA40     		lsr	r2, r2, r3
 660 0044 1A4B     		ldr	r3, .L29+24
 661 0046 1B68     		ldr	r3, [r3]
 662 0048 1A40     		and	r2, r3
 663 004a 174B     		ldr	r3, .L29+16
 664 004c 1A60     		str	r2, [r3]
 453:.\Generated_Source\PSoC4/StripLights.c ****  
 454:.\Generated_Source\PSoC4/StripLights.c ****         StripLights_DATA = (uint8)(color & 0x000000FF);  /* Write Red   */
 665              		.loc 1 454 0
 666 004e 194A     		ldr	r2, .L29+28
 667 0050 154B     		ldr	r3, .L29+16
 668 0052 1B68     		ldr	r3, [r3]
 669 0054 DBB2     		uxtb	r3, r3
 670 0056 1370     		strb	r3, [r2]
 455:.\Generated_Source\PSoC4/StripLights.c ****         color = color >> 8;
 671              		.loc 1 455 0
 672 0058 134B     		ldr	r3, .L29+16
 673 005a 1B68     		ldr	r3, [r3]
 674 005c 1A0A     		lsr	r2, r3, #8
 675 005e 124B     		ldr	r3, .L29+16
 676 0060 1A60     		str	r2, [r3]
 456:.\Generated_Source\PSoC4/StripLights.c ****         StripLights_DATA = (uint8)(color & 0x000000FF);  /* Write green */
 677              		.loc 1 456 0
 678 0062 144A     		ldr	r2, .L29+28
 679 0064 104B     		ldr	r3, .L29+16
 680 0066 1B68     		ldr	r3, [r3]
 681 0068 DBB2     		uxtb	r3, r3
 682 006a 1370     		strb	r3, [r2]
 457:.\Generated_Source\PSoC4/StripLights.c ****         color = color >> 8;
 683              		.loc 1 457 0
ARM GAS  C:\Users\vangelis\AppData\Local\Temp\ccJoPsBk.s 			page 21


 684 006c 0E4B     		ldr	r3, .L29+16
 685 006e 1B68     		ldr	r3, [r3]
 686 0070 1A0A     		lsr	r2, r3, #8
 687 0072 0D4B     		ldr	r3, .L29+16
 688 0074 1A60     		str	r2, [r3]
 458:.\Generated_Source\PSoC4/StripLights.c ****         StripLights_DATA = (uint8)(color & 0x000000FF);  /* Write green */
 689              		.loc 1 458 0
 690 0076 0F4A     		ldr	r2, .L29+28
 691 0078 0B4B     		ldr	r3, .L29+16
 692 007a 1B68     		ldr	r3, [r3]
 693 007c DBB2     		uxtb	r3, r3
 694 007e 1370     		strb	r3, [r2]
 459:.\Generated_Source\PSoC4/StripLights.c **** 
 460:.\Generated_Source\PSoC4/StripLights.c ****         StripLights_ledIndex = 1;
 695              		.loc 1 460 0
 696 0080 0D4B     		ldr	r3, .L29+32
 697 0082 0122     		mov	r2, #1
 698 0084 1A60     		str	r2, [r3]
 461:.\Generated_Source\PSoC4/StripLights.c **** 		StripLights_CONTROL = StripLights_ENABLE | StripLights_FIFO_IRQ_EN; 
 699              		.loc 1 461 0
 700 0086 044B     		ldr	r3, .L29
 701 0088 0922     		mov	r2, #9
 702 008a 1A70     		strb	r2, [r3]
 703 008c 02E0     		b	.L26
 704              	.L27:
 462:.\Generated_Source\PSoC4/StripLights.c **** 		
 463:.\Generated_Source\PSoC4/StripLights.c ****     }
 464:.\Generated_Source\PSoC4/StripLights.c ****     else
 465:.\Generated_Source\PSoC4/StripLights.c ****     {
 466:.\Generated_Source\PSoC4/StripLights.c ****         StripLights_refreshComplete = 1u;
 705              		.loc 1 466 0
 706 008e 0B4B     		ldr	r3, .L29+36
 707 0090 0122     		mov	r2, #1
 708 0092 1A60     		str	r2, [r3]
 709              	.L26:
 467:.\Generated_Source\PSoC4/StripLights.c ****     }
 468:.\Generated_Source\PSoC4/StripLights.c ****   
 469:.\Generated_Source\PSoC4/StripLights.c **** }
 710              		.loc 1 469 0
 711 0094 BD46     		mov	sp, r7
 712              		@ sp needed
 713 0096 80BD     		pop	{r7, pc}
 714              	.L30:
 715              		.align	2
 716              	.L29:
 717 0098 72000F40 		.word	1074724978
 718 009c 00000000 		.word	StripLights_row
 719 00a0 70000F40 		.word	1074724976
 720 00a4 00000000 		.word	StripLights_ledArray
 721 00a8 14000000 		.word	color.5767
 722 00ac 00000000 		.word	StripLights_DimShift
 723 00b0 00000000 		.word	StripLights_DimMask
 724 00b4 42000F40 		.word	1074724930
 725 00b8 00000000 		.word	StripLights_ledIndex
 726 00bc 00000000 		.word	StripLights_refreshComplete
 727              		.cfi_endproc
 728              	.LFE39:
ARM GAS  C:\Users\vangelis\AppData\Local\Temp\ccJoPsBk.s 			page 22


 729              		.size	StripLights_CISR, .-StripLights_CISR
 730              		.section	.text.StripLights_DisplayClear,"ax",%progbits
 731              		.align	2
 732              		.global	StripLights_DisplayClear
 733              		.code	16
 734              		.thumb_func
 735              		.type	StripLights_DisplayClear, %function
 736              	StripLights_DisplayClear:
 737              	.LFB40:
 470:.\Generated_Source\PSoC4/StripLights.c **** 
 471:.\Generated_Source\PSoC4/StripLights.c **** 
 472:.\Generated_Source\PSoC4/StripLights.c **** /*******************************************************************************
 473:.\Generated_Source\PSoC4/StripLights.c **** * Function Name: StripLights_DisplayClear
 474:.\Generated_Source\PSoC4/StripLights.c **** ********************************************************************************
 475:.\Generated_Source\PSoC4/StripLights.c **** * Summary:
 476:.\Generated_Source\PSoC4/StripLights.c **** *   Clear memory with a given value and update the display.
 477:.\Generated_Source\PSoC4/StripLights.c **** *
 478:.\Generated_Source\PSoC4/StripLights.c **** * Parameters:  
 479:.\Generated_Source\PSoC4/StripLights.c **** *  uint32 color: Color to clear display. 
 480:.\Generated_Source\PSoC4/StripLights.c **** *
 481:.\Generated_Source\PSoC4/StripLights.c **** * Return: 
 482:.\Generated_Source\PSoC4/StripLights.c **** *  void
 483:.\Generated_Source\PSoC4/StripLights.c **** *
 484:.\Generated_Source\PSoC4/StripLights.c **** *******************************************************************************/
 485:.\Generated_Source\PSoC4/StripLights.c **** void StripLights_DisplayClear(uint32 color)
 486:.\Generated_Source\PSoC4/StripLights.c **** {   
 738              		.loc 1 486 0
 739              		.cfi_startproc
 740 0000 80B5     		push	{r7, lr}
 741              		.cfi_def_cfa_offset 8
 742              		.cfi_offset 7, -8
 743              		.cfi_offset 14, -4
 744 0002 82B0     		sub	sp, sp, #8
 745              		.cfi_def_cfa_offset 16
 746 0004 00AF     		add	r7, sp, #0
 747              		.cfi_def_cfa_register 7
 748 0006 7860     		str	r0, [r7, #4]
 487:.\Generated_Source\PSoC4/StripLights.c ****     StripLights_MemClear(color);
 749              		.loc 1 487 0
 750 0008 7B68     		ldr	r3, [r7, #4]
 751 000a 181C     		mov	r0, r3
 752 000c FFF7FEFF 		bl	StripLights_MemClear
 488:.\Generated_Source\PSoC4/StripLights.c ****     StripLights_Trigger(1);
 753              		.loc 1 488 0
 754 0010 0120     		mov	r0, #1
 755 0012 FFF7FEFF 		bl	StripLights_Trigger
 489:.\Generated_Source\PSoC4/StripLights.c **** }
 756              		.loc 1 489 0
 757 0016 BD46     		mov	sp, r7
 758 0018 02B0     		add	sp, sp, #8
 759              		@ sp needed
 760 001a 80BD     		pop	{r7, pc}
 761              		.cfi_endproc
 762              	.LFE40:
 763              		.size	StripLights_DisplayClear, .-StripLights_DisplayClear
 764              		.section	.text.StripLights_MemClear,"ax",%progbits
 765              		.align	2
ARM GAS  C:\Users\vangelis\AppData\Local\Temp\ccJoPsBk.s 			page 23


 766              		.global	StripLights_MemClear
 767              		.code	16
 768              		.thumb_func
 769              		.type	StripLights_MemClear, %function
 770              	StripLights_MemClear:
 771              	.LFB41:
 490:.\Generated_Source\PSoC4/StripLights.c **** 
 491:.\Generated_Source\PSoC4/StripLights.c **** /*******************************************************************************
 492:.\Generated_Source\PSoC4/StripLights.c **** * Function Name: StripLights_MemClear
 493:.\Generated_Source\PSoC4/StripLights.c **** ********************************************************************************
 494:.\Generated_Source\PSoC4/StripLights.c **** * Summary:
 495:.\Generated_Source\PSoC4/StripLights.c **** *   Clear LED memory with given color, but do not update display.
 496:.\Generated_Source\PSoC4/StripLights.c **** *
 497:.\Generated_Source\PSoC4/StripLights.c **** * Parameters:  
 498:.\Generated_Source\PSoC4/StripLights.c **** *  uint32 color: Color to clear display.  
 499:.\Generated_Source\PSoC4/StripLights.c **** *
 500:.\Generated_Source\PSoC4/StripLights.c **** * Return: 
 501:.\Generated_Source\PSoC4/StripLights.c **** *  void
 502:.\Generated_Source\PSoC4/StripLights.c **** *
 503:.\Generated_Source\PSoC4/StripLights.c **** *******************************************************************************/
 504:.\Generated_Source\PSoC4/StripLights.c **** void StripLights_MemClear(uint32 color)
 505:.\Generated_Source\PSoC4/StripLights.c **** {
 772              		.loc 1 505 0
 773              		.cfi_startproc
 774 0000 80B5     		push	{r7, lr}
 775              		.cfi_def_cfa_offset 8
 776              		.cfi_offset 7, -8
 777              		.cfi_offset 14, -4
 778 0002 84B0     		sub	sp, sp, #16
 779              		.cfi_def_cfa_offset 24
 780 0004 00AF     		add	r7, sp, #0
 781              		.cfi_def_cfa_register 7
 782 0006 7860     		str	r0, [r7, #4]
 506:.\Generated_Source\PSoC4/StripLights.c ****     uint32  row, col;
 507:.\Generated_Source\PSoC4/StripLights.c ****     
 508:.\Generated_Source\PSoC4/StripLights.c ****     for(row=0; row < StripLights_ARRAY_ROWS; row++)
 783              		.loc 1 508 0
 784 0008 0023     		mov	r3, #0
 785 000a FB60     		str	r3, [r7, #12]
 786 000c 21E0     		b	.L33
 787              	.L36:
 509:.\Generated_Source\PSoC4/StripLights.c ****     {
 510:.\Generated_Source\PSoC4/StripLights.c ****         for(col=0; col < StripLights_ARRAY_COLS; col++)
 788              		.loc 1 510 0
 789 000e 0023     		mov	r3, #0
 790 0010 BB60     		str	r3, [r7, #8]
 791 0012 18E0     		b	.L34
 792              	.L35:
 511:.\Generated_Source\PSoC4/StripLights.c ****         {
 512:.\Generated_Source\PSoC4/StripLights.c ****             StripLights_ledArray[row][col] = color;
 793              		.loc 1 512 0 discriminator 3
 794 0014 1249     		ldr	r1, .L37
 795 0016 FA68     		ldr	r2, [r7, #12]
 796 0018 131C     		mov	r3, r2
 797 001a 5B00     		lsl	r3, r3, #1
 798 001c 9B18     		add	r3, r3, r2
 799 001e 9B00     		lsl	r3, r3, #2
ARM GAS  C:\Users\vangelis\AppData\Local\Temp\ccJoPsBk.s 			page 24


 800 0020 BA68     		ldr	r2, [r7, #8]
 801 0022 9B18     		add	r3, r3, r2
 802 0024 9B00     		lsl	r3, r3, #2
 803 0026 7A68     		ldr	r2, [r7, #4]
 804 0028 5A50     		str	r2, [r3, r1]
 513:.\Generated_Source\PSoC4/StripLights.c ****             #if(StripLights_MEMORY_TYPE == StripLights_MEMORY_RGB)
 514:.\Generated_Source\PSoC4/StripLights.c ****                 StripLights_ledArray[row][col] = color;
 805              		.loc 1 514 0 discriminator 3
 806 002a 0D49     		ldr	r1, .L37
 807 002c FA68     		ldr	r2, [r7, #12]
 808 002e 131C     		mov	r3, r2
 809 0030 5B00     		lsl	r3, r3, #1
 810 0032 9B18     		add	r3, r3, r2
 811 0034 9B00     		lsl	r3, r3, #2
 812 0036 BA68     		ldr	r2, [r7, #8]
 813 0038 9B18     		add	r3, r3, r2
 814 003a 9B00     		lsl	r3, r3, #2
 815 003c 7A68     		ldr	r2, [r7, #4]
 816 003e 5A50     		str	r2, [r3, r1]
 510:.\Generated_Source\PSoC4/StripLights.c ****         {
 817              		.loc 1 510 0 discriminator 3
 818 0040 BB68     		ldr	r3, [r7, #8]
 819 0042 0133     		add	r3, r3, #1
 820 0044 BB60     		str	r3, [r7, #8]
 821              	.L34:
 510:.\Generated_Source\PSoC4/StripLights.c ****         {
 822              		.loc 1 510 0 is_stmt 0 discriminator 1
 823 0046 BB68     		ldr	r3, [r7, #8]
 824 0048 0B2B     		cmp	r3, #11
 825 004a E3D9     		bls	.L35
 508:.\Generated_Source\PSoC4/StripLights.c ****     {
 826              		.loc 1 508 0 is_stmt 1 discriminator 2
 827 004c FB68     		ldr	r3, [r7, #12]
 828 004e 0133     		add	r3, r3, #1
 829 0050 FB60     		str	r3, [r7, #12]
 830              	.L33:
 508:.\Generated_Source\PSoC4/StripLights.c ****     {
 831              		.loc 1 508 0 is_stmt 0 discriminator 1
 832 0052 FB68     		ldr	r3, [r7, #12]
 833 0054 0B2B     		cmp	r3, #11
 834 0056 DAD9     		bls	.L36
 515:.\Generated_Source\PSoC4/StripLights.c ****             #else  /* Else use lookup table */
 516:.\Generated_Source\PSoC4/StripLights.c ****                  StripLights_ledArray[row][col] = (uint8)color;
 517:.\Generated_Source\PSoC4/StripLights.c ****             #endif
 518:.\Generated_Source\PSoC4/StripLights.c ****         }
 519:.\Generated_Source\PSoC4/StripLights.c ****     }
 520:.\Generated_Source\PSoC4/StripLights.c **** }
 835              		.loc 1 520 0 is_stmt 1
 836 0058 BD46     		mov	sp, r7
 837 005a 04B0     		add	sp, sp, #16
 838              		@ sp needed
 839 005c 80BD     		pop	{r7, pc}
 840              	.L38:
 841 005e C046     		.align	2
 842              	.L37:
 843 0060 00000000 		.word	StripLights_ledArray
 844              		.cfi_endproc
ARM GAS  C:\Users\vangelis\AppData\Local\Temp\ccJoPsBk.s 			page 25


 845              	.LFE41:
 846              		.size	StripLights_MemClear, .-StripLights_MemClear
 847              		.section	.text.StripLights_WriteColor,"ax",%progbits
 848              		.align	2
 849              		.global	StripLights_WriteColor
 850              		.code	16
 851              		.thumb_func
 852              		.type	StripLights_WriteColor, %function
 853              	StripLights_WriteColor:
 854              	.LFB42:
 521:.\Generated_Source\PSoC4/StripLights.c **** 
 522:.\Generated_Source\PSoC4/StripLights.c **** 
 523:.\Generated_Source\PSoC4/StripLights.c **** 
 524:.\Generated_Source\PSoC4/StripLights.c **** /*******************************************************************************
 525:.\Generated_Source\PSoC4/StripLights.c **** * Function Name: StripLights_WriteColor
 526:.\Generated_Source\PSoC4/StripLights.c **** ********************************************************************************
 527:.\Generated_Source\PSoC4/StripLights.c **** * Summary:
 528:.\Generated_Source\PSoC4/StripLights.c **** *   Write given color directly to output register.
 529:.\Generated_Source\PSoC4/StripLights.c **** *
 530:.\Generated_Source\PSoC4/StripLights.c **** * Parameters:  
 531:.\Generated_Source\PSoC4/StripLights.c **** *  uint32 color: Color to write to display. 
 532:.\Generated_Source\PSoC4/StripLights.c **** *
 533:.\Generated_Source\PSoC4/StripLights.c **** * Return: 
 534:.\Generated_Source\PSoC4/StripLights.c **** *  void
 535:.\Generated_Source\PSoC4/StripLights.c **** *
 536:.\Generated_Source\PSoC4/StripLights.c **** *******************************************************************************/
 537:.\Generated_Source\PSoC4/StripLights.c **** void StripLights_WriteColor(uint32 color)
 538:.\Generated_Source\PSoC4/StripLights.c **** {
 855              		.loc 1 538 0
 856              		.cfi_startproc
 857 0000 80B5     		push	{r7, lr}
 858              		.cfi_def_cfa_offset 8
 859              		.cfi_offset 7, -8
 860              		.cfi_offset 14, -4
 861 0002 82B0     		sub	sp, sp, #8
 862              		.cfi_def_cfa_offset 16
 863 0004 00AF     		add	r7, sp, #0
 864              		.cfi_def_cfa_register 7
 865 0006 7860     		str	r0, [r7, #4]
 539:.\Generated_Source\PSoC4/StripLights.c ****     while( (StripLights_STATUS & StripLights_FIFO_EMPTY) == 0); 
 866              		.loc 1 539 0
 867 0008 C046     		mov	r8, r8
 868              	.L40:
 869              		.loc 1 539 0 is_stmt 0 discriminator 1
 870 000a 0E4B     		ldr	r3, .L41
 871 000c 1B78     		ldrb	r3, [r3]
 872 000e DBB2     		uxtb	r3, r3
 873 0010 1A1C     		mov	r2, r3
 874 0012 0123     		mov	r3, #1
 875 0014 1340     		and	r3, r2
 876 0016 F8D0     		beq	.L40
 540:.\Generated_Source\PSoC4/StripLights.c **** 
 541:.\Generated_Source\PSoC4/StripLights.c ****     StripLights_DATA = (uint8)(color & 0x000000FF);  // Write Green
 877              		.loc 1 541 0 is_stmt 1
 878 0018 0B4B     		ldr	r3, .L41+4
 879 001a 7A68     		ldr	r2, [r7, #4]
 880 001c D2B2     		uxtb	r2, r2
ARM GAS  C:\Users\vangelis\AppData\Local\Temp\ccJoPsBk.s 			page 26


 881 001e 1A70     		strb	r2, [r3]
 542:.\Generated_Source\PSoC4/StripLights.c ****     color = color >> 8;
 882              		.loc 1 542 0
 883 0020 7B68     		ldr	r3, [r7, #4]
 884 0022 1B0A     		lsr	r3, r3, #8
 885 0024 7B60     		str	r3, [r7, #4]
 543:.\Generated_Source\PSoC4/StripLights.c ****     StripLights_DATA = (uint8)(color & 0x000000FF);  // Write Red
 886              		.loc 1 543 0
 887 0026 084B     		ldr	r3, .L41+4
 888 0028 7A68     		ldr	r2, [r7, #4]
 889 002a D2B2     		uxtb	r2, r2
 890 002c 1A70     		strb	r2, [r3]
 544:.\Generated_Source\PSoC4/StripLights.c ****     color = color >> 8;
 891              		.loc 1 544 0
 892 002e 7B68     		ldr	r3, [r7, #4]
 893 0030 1B0A     		lsr	r3, r3, #8
 894 0032 7B60     		str	r3, [r7, #4]
 545:.\Generated_Source\PSoC4/StripLights.c ****     StripLights_DATA = (uint8)(color & 0x000000FF);  // Write Blue
 895              		.loc 1 545 0
 896 0034 044B     		ldr	r3, .L41+4
 897 0036 7A68     		ldr	r2, [r7, #4]
 898 0038 D2B2     		uxtb	r2, r2
 899 003a 1A70     		strb	r2, [r3]
 546:.\Generated_Source\PSoC4/StripLights.c **** }
 900              		.loc 1 546 0
 901 003c BD46     		mov	sp, r7
 902 003e 02B0     		add	sp, sp, #8
 903              		@ sp needed
 904 0040 80BD     		pop	{r7, pc}
 905              	.L42:
 906 0042 C046     		.align	2
 907              	.L41:
 908 0044 62000F40 		.word	1074724962
 909 0048 42000F40 		.word	1074724930
 910              		.cfi_endproc
 911              	.LFE42:
 912              		.size	StripLights_WriteColor, .-StripLights_WriteColor
 913              		.section	.text.StripLights_Pixel,"ax",%progbits
 914              		.align	2
 915              		.global	StripLights_Pixel
 916              		.code	16
 917              		.thumb_func
 918              		.type	StripLights_Pixel, %function
 919              	StripLights_Pixel:
 920              	.LFB43:
 547:.\Generated_Source\PSoC4/StripLights.c **** 
 548:.\Generated_Source\PSoC4/StripLights.c **** 
 549:.\Generated_Source\PSoC4/StripLights.c **** /*******************************************************************************
 550:.\Generated_Source\PSoC4/StripLights.c **** * Function Name: StripLights_Pixel
 551:.\Generated_Source\PSoC4/StripLights.c **** ********************************************************************************
 552:.\Generated_Source\PSoC4/StripLights.c **** *
 553:.\Generated_Source\PSoC4/StripLights.c **** * Summary:
 554:.\Generated_Source\PSoC4/StripLights.c **** *  Draw Pixel  
 555:.\Generated_Source\PSoC4/StripLights.c **** *
 556:.\Generated_Source\PSoC4/StripLights.c **** * Parameters:  
 557:.\Generated_Source\PSoC4/StripLights.c **** *  x,y:    Location to draw the pixel
 558:.\Generated_Source\PSoC4/StripLights.c **** *  color:  Color of the pixel
ARM GAS  C:\Users\vangelis\AppData\Local\Temp\ccJoPsBk.s 			page 27


 559:.\Generated_Source\PSoC4/StripLights.c **** *
 560:.\Generated_Source\PSoC4/StripLights.c **** * Return: 
 561:.\Generated_Source\PSoC4/StripLights.c **** *  None 
 562:.\Generated_Source\PSoC4/StripLights.c **** *******************************************************************************/
 563:.\Generated_Source\PSoC4/StripLights.c **** void StripLights_Pixel(int32 x, int32 y, uint32 color)
 564:.\Generated_Source\PSoC4/StripLights.c **** {
 921              		.loc 1 564 0
 922              		.cfi_startproc
 923 0000 80B5     		push	{r7, lr}
 924              		.cfi_def_cfa_offset 8
 925              		.cfi_offset 7, -8
 926              		.cfi_offset 14, -4
 927 0002 84B0     		sub	sp, sp, #16
 928              		.cfi_def_cfa_offset 24
 929 0004 00AF     		add	r7, sp, #0
 930              		.cfi_def_cfa_register 7
 931 0006 F860     		str	r0, [r7, #12]
 932 0008 B960     		str	r1, [r7, #8]
 933 000a 7A60     		str	r2, [r7, #4]
 565:.\Generated_Source\PSoC4/StripLights.c **** 
 566:.\Generated_Source\PSoC4/StripLights.c **** 	if((x >= StripLights_MIN_X) && (y >= StripLights_MIN_Y) && (x <= StripLights_MAX_X) && (y <= Strip
 934              		.loc 1 566 0
 935 000c FB68     		ldr	r3, [r7, #12]
 936 000e 002B     		cmp	r3, #0
 937 0010 13DB     		blt	.L43
 938              		.loc 1 566 0 is_stmt 0 discriminator 1
 939 0012 BB68     		ldr	r3, [r7, #8]
 940 0014 002B     		cmp	r3, #0
 941 0016 10DB     		blt	.L43
 942              		.loc 1 566 0 discriminator 2
 943 0018 FB68     		ldr	r3, [r7, #12]
 944 001a 0B2B     		cmp	r3, #11
 945 001c 0DDC     		bgt	.L43
 946              		.loc 1 566 0 discriminator 3
 947 001e BB68     		ldr	r3, [r7, #8]
 948 0020 0B2B     		cmp	r3, #11
 949 0022 0ADC     		bgt	.L43
 567:.\Generated_Source\PSoC4/StripLights.c ****     {
 568:.\Generated_Source\PSoC4/StripLights.c **** 
 569:.\Generated_Source\PSoC4/StripLights.c ****     #if(StripLights_MEMORY_TYPE == StripLights_MEMORY_RGB)
 570:.\Generated_Source\PSoC4/StripLights.c ****        StripLights_ledArray[y][x] = color;
 950              		.loc 1 570 0 is_stmt 1
 951 0024 0649     		ldr	r1, .L45
 952 0026 BA68     		ldr	r2, [r7, #8]
 953 0028 131C     		mov	r3, r2
 954 002a 5B00     		lsl	r3, r3, #1
 955 002c 9B18     		add	r3, r3, r2
 956 002e 9B00     		lsl	r3, r3, #2
 957 0030 FA68     		ldr	r2, [r7, #12]
 958 0032 9B18     		add	r3, r3, r2
 959 0034 9B00     		lsl	r3, r3, #2
 960 0036 7A68     		ldr	r2, [r7, #4]
 961 0038 5A50     		str	r2, [r3, r1]
 962              	.L43:
 571:.\Generated_Source\PSoC4/StripLights.c ****     #else  /* Else use lookup table */
 572:.\Generated_Source\PSoC4/StripLights.c ****        StripLights_ledArray[y][x] = (uint8)color;
 573:.\Generated_Source\PSoC4/StripLights.c ****     #endif
ARM GAS  C:\Users\vangelis\AppData\Local\Temp\ccJoPsBk.s 			page 28


 574:.\Generated_Source\PSoC4/StripLights.c ****     }
 575:.\Generated_Source\PSoC4/StripLights.c ****   
 576:.\Generated_Source\PSoC4/StripLights.c **** }
 963              		.loc 1 576 0
 964 003a BD46     		mov	sp, r7
 965 003c 04B0     		add	sp, sp, #16
 966              		@ sp needed
 967 003e 80BD     		pop	{r7, pc}
 968              	.L46:
 969              		.align	2
 970              	.L45:
 971 0040 00000000 		.word	StripLights_ledArray
 972              		.cfi_endproc
 973              	.LFE43:
 974              		.size	StripLights_Pixel, .-StripLights_Pixel
 975              		.section	.text.StripLights_GetPixel,"ax",%progbits
 976              		.align	2
 977              		.global	StripLights_GetPixel
 978              		.code	16
 979              		.thumb_func
 980              		.type	StripLights_GetPixel, %function
 981              	StripLights_GetPixel:
 982              	.LFB44:
 577:.\Generated_Source\PSoC4/StripLights.c **** 
 578:.\Generated_Source\PSoC4/StripLights.c **** /*******************************************************************************
 579:.\Generated_Source\PSoC4/StripLights.c **** * Function Name: StripLights_GetPixel
 580:.\Generated_Source\PSoC4/StripLights.c **** ********************************************************************************
 581:.\Generated_Source\PSoC4/StripLights.c **** *
 582:.\Generated_Source\PSoC4/StripLights.c **** * Summary:
 583:.\Generated_Source\PSoC4/StripLights.c **** *  Get Pixel Color  
 584:.\Generated_Source\PSoC4/StripLights.c **** *
 585:.\Generated_Source\PSoC4/StripLights.c **** * Parameters:  
 586:.\Generated_Source\PSoC4/StripLights.c **** *  x,y:    Location to get pixel color
 587:.\Generated_Source\PSoC4/StripLights.c **** *
 588:.\Generated_Source\PSoC4/StripLights.c **** * Return: 
 589:.\Generated_Source\PSoC4/StripLights.c **** *  None 
 590:.\Generated_Source\PSoC4/StripLights.c **** *******************************************************************************/
 591:.\Generated_Source\PSoC4/StripLights.c **** uint32 StripLights_GetPixel(int32 x, int32 y)
 592:.\Generated_Source\PSoC4/StripLights.c **** {
 983              		.loc 1 592 0
 984              		.cfi_startproc
 985 0000 80B5     		push	{r7, lr}
 986              		.cfi_def_cfa_offset 8
 987              		.cfi_offset 7, -8
 988              		.cfi_offset 14, -4
 989 0002 84B0     		sub	sp, sp, #16
 990              		.cfi_def_cfa_offset 24
 991 0004 00AF     		add	r7, sp, #0
 992              		.cfi_def_cfa_register 7
 993 0006 7860     		str	r0, [r7, #4]
 994 0008 3960     		str	r1, [r7]
 593:.\Generated_Source\PSoC4/StripLights.c ****     uint32 color;
 594:.\Generated_Source\PSoC4/StripLights.c ****     if((x>=0) && (y>=0) && (x < StripLights_ARRAY_COLS) && (y < StripLights_ARRAY_ROWS))
 995              		.loc 1 594 0
 996 000a 7B68     		ldr	r3, [r7, #4]
 997 000c 002B     		cmp	r3, #0
 998 000e 13DB     		blt	.L48
ARM GAS  C:\Users\vangelis\AppData\Local\Temp\ccJoPsBk.s 			page 29


 999              		.loc 1 594 0 is_stmt 0 discriminator 1
 1000 0010 3B68     		ldr	r3, [r7]
 1001 0012 002B     		cmp	r3, #0
 1002 0014 10DB     		blt	.L48
 1003              		.loc 1 594 0 discriminator 2
 1004 0016 7B68     		ldr	r3, [r7, #4]
 1005 0018 0B2B     		cmp	r3, #11
 1006 001a 0DDC     		bgt	.L48
 1007              		.loc 1 594 0 discriminator 3
 1008 001c 3B68     		ldr	r3, [r7]
 1009 001e 0B2B     		cmp	r3, #11
 1010 0020 0ADC     		bgt	.L48
 595:.\Generated_Source\PSoC4/StripLights.c ****     {
 596:.\Generated_Source\PSoC4/StripLights.c ****     #if(StripLights_MEMORY_TYPE == StripLights_MEMORY_RGB)
 597:.\Generated_Source\PSoC4/StripLights.c ****        color = StripLights_ledArray[y][x];
 1011              		.loc 1 597 0 is_stmt 1
 1012 0022 0849     		ldr	r1, .L50
 1013 0024 3A68     		ldr	r2, [r7]
 1014 0026 131C     		mov	r3, r2
 1015 0028 5B00     		lsl	r3, r3, #1
 1016 002a 9B18     		add	r3, r3, r2
 1017 002c 9B00     		lsl	r3, r3, #2
 1018 002e 7A68     		ldr	r2, [r7, #4]
 1019 0030 9B18     		add	r3, r3, r2
 1020 0032 9B00     		lsl	r3, r3, #2
 1021 0034 5B58     		ldr	r3, [r3, r1]
 1022 0036 FB60     		str	r3, [r7, #12]
 1023              	.L48:
 598:.\Generated_Source\PSoC4/StripLights.c ****     #else  /* Else use lookup table */
 599:.\Generated_Source\PSoC4/StripLights.c ****        color = (uint32)StripLights_ledArray[y][x];
 600:.\Generated_Source\PSoC4/StripLights.c ****     #endif
 601:.\Generated_Source\PSoC4/StripLights.c ****     }
 602:.\Generated_Source\PSoC4/StripLights.c ****     return(color);
 1024              		.loc 1 602 0
 1025 0038 FB68     		ldr	r3, [r7, #12]
 603:.\Generated_Source\PSoC4/StripLights.c **** }
 1026              		.loc 1 603 0
 1027 003a 181C     		mov	r0, r3
 1028 003c BD46     		mov	sp, r7
 1029 003e 04B0     		add	sp, sp, #16
 1030              		@ sp needed
 1031 0040 80BD     		pop	{r7, pc}
 1032              	.L51:
 1033 0042 C046     		.align	2
 1034              	.L50:
 1035 0044 00000000 		.word	StripLights_ledArray
 1036              		.cfi_endproc
 1037              	.LFE44:
 1038              		.size	StripLights_GetPixel, .-StripLights_GetPixel
 1039              		.section	.text.StripLights_DrawCircle,"ax",%progbits
 1040              		.align	2
 1041              		.global	StripLights_DrawCircle
 1042              		.code	16
 1043              		.thumb_func
 1044              		.type	StripLights_DrawCircle, %function
 1045              	StripLights_DrawCircle:
 1046              	.LFB45:
ARM GAS  C:\Users\vangelis\AppData\Local\Temp\ccJoPsBk.s 			page 30


 604:.\Generated_Source\PSoC4/StripLights.c **** 
 605:.\Generated_Source\PSoC4/StripLights.c **** /*******************************************************************************
 606:.\Generated_Source\PSoC4/StripLights.c **** * Function Name: StripLights_DrawCircle
 607:.\Generated_Source\PSoC4/StripLights.c **** ********************************************************************************
 608:.\Generated_Source\PSoC4/StripLights.c **** *
 609:.\Generated_Source\PSoC4/StripLights.c **** * Summary:
 610:.\Generated_Source\PSoC4/StripLights.c **** *  Draw a circle on the display given a start point and radius.  
 611:.\Generated_Source\PSoC4/StripLights.c **** *
 612:.\Generated_Source\PSoC4/StripLights.c **** *  This code uses Bresenham's Circle Algorithm. 
 613:.\Generated_Source\PSoC4/StripLights.c **** *
 614:.\Generated_Source\PSoC4/StripLights.c **** * Parameters:  
 615:.\Generated_Source\PSoC4/StripLights.c **** *  x0, y0: Center of circle
 616:.\Generated_Source\PSoC4/StripLights.c **** *  radius: Radius of circle
 617:.\Generated_Source\PSoC4/StripLights.c **** *  color:  Color of circle
 618:.\Generated_Source\PSoC4/StripLights.c **** *
 619:.\Generated_Source\PSoC4/StripLights.c **** * Return: 
 620:.\Generated_Source\PSoC4/StripLights.c **** *  None 
 621:.\Generated_Source\PSoC4/StripLights.c **** *  
 622:.\Generated_Source\PSoC4/StripLights.c **** *******************************************************************************/
 623:.\Generated_Source\PSoC4/StripLights.c **** void StripLights_DrawCircle (int32 x0, int32 y0, int32 radius, uint32 color)
 624:.\Generated_Source\PSoC4/StripLights.c **** {
 1047              		.loc 1 624 0
 1048              		.cfi_startproc
 1049 0000 80B5     		push	{r7, lr}
 1050              		.cfi_def_cfa_offset 8
 1051              		.cfi_offset 7, -8
 1052              		.cfi_offset 14, -4
 1053 0002 8AB0     		sub	sp, sp, #40
 1054              		.cfi_def_cfa_offset 48
 1055 0004 00AF     		add	r7, sp, #0
 1056              		.cfi_def_cfa_register 7
 1057 0006 F860     		str	r0, [r7, #12]
 1058 0008 B960     		str	r1, [r7, #8]
 1059 000a 7A60     		str	r2, [r7, #4]
 1060 000c 3B60     		str	r3, [r7]
 625:.\Generated_Source\PSoC4/StripLights.c **** 	int32 f = 1 - radius;
 1061              		.loc 1 625 0
 1062 000e 7B68     		ldr	r3, [r7, #4]
 1063 0010 0122     		mov	r2, #1
 1064 0012 D31A     		sub	r3, r2, r3
 1065 0014 7B62     		str	r3, [r7, #36]
 626:.\Generated_Source\PSoC4/StripLights.c **** 	int32 ddF_x = 0;
 1066              		.loc 1 626 0
 1067 0016 0023     		mov	r3, #0
 1068 0018 3B62     		str	r3, [r7, #32]
 627:.\Generated_Source\PSoC4/StripLights.c **** 	int32 ddF_y = -2 * radius;
 1069              		.loc 1 627 0
 1070 001a 7A68     		ldr	r2, [r7, #4]
 1071 001c 131C     		mov	r3, r2
 1072 001e DB07     		lsl	r3, r3, #31
 1073 0020 9B1A     		sub	r3, r3, r2
 1074 0022 5B00     		lsl	r3, r3, #1
 1075 0024 FB61     		str	r3, [r7, #28]
 628:.\Generated_Source\PSoC4/StripLights.c **** 	int32 x = 0;
 1076              		.loc 1 628 0
 1077 0026 0023     		mov	r3, #0
 1078 0028 BB61     		str	r3, [r7, #24]
ARM GAS  C:\Users\vangelis\AppData\Local\Temp\ccJoPsBk.s 			page 31


 629:.\Generated_Source\PSoC4/StripLights.c **** 	int32 y = radius;
 1079              		.loc 1 629 0
 1080 002a 7B68     		ldr	r3, [r7, #4]
 1081 002c 7B61     		str	r3, [r7, #20]
 630:.\Generated_Source\PSoC4/StripLights.c **** 
 631:.\Generated_Source\PSoC4/StripLights.c **** 	StripLights_Pixel(x0, y0 + radius, color);
 1082              		.loc 1 631 0
 1083 002e BA68     		ldr	r2, [r7, #8]
 1084 0030 7B68     		ldr	r3, [r7, #4]
 1085 0032 D218     		add	r2, r2, r3
 1086 0034 F968     		ldr	r1, [r7, #12]
 1087 0036 3B68     		ldr	r3, [r7]
 1088 0038 081C     		mov	r0, r1
 1089 003a 111C     		mov	r1, r2
 1090 003c 1A1C     		mov	r2, r3
 1091 003e FFF7FEFF 		bl	StripLights_Pixel
 632:.\Generated_Source\PSoC4/StripLights.c **** 	StripLights_Pixel(x0, y0 - radius, color);
 1092              		.loc 1 632 0
 1093 0042 BA68     		ldr	r2, [r7, #8]
 1094 0044 7B68     		ldr	r3, [r7, #4]
 1095 0046 D21A     		sub	r2, r2, r3
 1096 0048 F968     		ldr	r1, [r7, #12]
 1097 004a 3B68     		ldr	r3, [r7]
 1098 004c 081C     		mov	r0, r1
 1099 004e 111C     		mov	r1, r2
 1100 0050 1A1C     		mov	r2, r3
 1101 0052 FFF7FEFF 		bl	StripLights_Pixel
 633:.\Generated_Source\PSoC4/StripLights.c **** 	StripLights_Pixel( x0 + radius, y0, color);
 1102              		.loc 1 633 0
 1103 0056 FA68     		ldr	r2, [r7, #12]
 1104 0058 7B68     		ldr	r3, [r7, #4]
 1105 005a D118     		add	r1, r2, r3
 1106 005c BA68     		ldr	r2, [r7, #8]
 1107 005e 3B68     		ldr	r3, [r7]
 1108 0060 081C     		mov	r0, r1
 1109 0062 111C     		mov	r1, r2
 1110 0064 1A1C     		mov	r2, r3
 1111 0066 FFF7FEFF 		bl	StripLights_Pixel
 634:.\Generated_Source\PSoC4/StripLights.c **** 	StripLights_Pixel( x0 - radius, y0, color);
 1112              		.loc 1 634 0
 1113 006a FA68     		ldr	r2, [r7, #12]
 1114 006c 7B68     		ldr	r3, [r7, #4]
 1115 006e D11A     		sub	r1, r2, r3
 1116 0070 BA68     		ldr	r2, [r7, #8]
 1117 0072 3B68     		ldr	r3, [r7]
 1118 0074 081C     		mov	r0, r1
 1119 0076 111C     		mov	r1, r2
 1120 0078 1A1C     		mov	r2, r3
 1121 007a FFF7FEFF 		bl	StripLights_Pixel
 635:.\Generated_Source\PSoC4/StripLights.c **** 
 636:.\Generated_Source\PSoC4/StripLights.c **** 	while(x < y)
 1122              		.loc 1 636 0
 1123 007e 77E0     		b	.L53
 1124              	.L55:
 637:.\Generated_Source\PSoC4/StripLights.c **** 	{
 638:.\Generated_Source\PSoC4/StripLights.c **** 		if(f >= 0)
 1125              		.loc 1 638 0
ARM GAS  C:\Users\vangelis\AppData\Local\Temp\ccJoPsBk.s 			page 32


 1126 0080 7B6A     		ldr	r3, [r7, #36]
 1127 0082 002B     		cmp	r3, #0
 1128 0084 09DB     		blt	.L54
 639:.\Generated_Source\PSoC4/StripLights.c **** 		{
 640:.\Generated_Source\PSoC4/StripLights.c **** 			y--;
 1129              		.loc 1 640 0
 1130 0086 7B69     		ldr	r3, [r7, #20]
 1131 0088 013B     		sub	r3, r3, #1
 1132 008a 7B61     		str	r3, [r7, #20]
 641:.\Generated_Source\PSoC4/StripLights.c **** 			ddF_y += 2;
 1133              		.loc 1 641 0
 1134 008c FB69     		ldr	r3, [r7, #28]
 1135 008e 0233     		add	r3, r3, #2
 1136 0090 FB61     		str	r3, [r7, #28]
 642:.\Generated_Source\PSoC4/StripLights.c **** 			f += ddF_y;
 1137              		.loc 1 642 0
 1138 0092 7A6A     		ldr	r2, [r7, #36]
 1139 0094 FB69     		ldr	r3, [r7, #28]
 1140 0096 D318     		add	r3, r2, r3
 1141 0098 7B62     		str	r3, [r7, #36]
 1142              	.L54:
 643:.\Generated_Source\PSoC4/StripLights.c **** 		}
 644:.\Generated_Source\PSoC4/StripLights.c **** 		x++;
 1143              		.loc 1 644 0
 1144 009a BB69     		ldr	r3, [r7, #24]
 1145 009c 0133     		add	r3, r3, #1
 1146 009e BB61     		str	r3, [r7, #24]
 645:.\Generated_Source\PSoC4/StripLights.c **** 		ddF_x += 2;
 1147              		.loc 1 645 0
 1148 00a0 3B6A     		ldr	r3, [r7, #32]
 1149 00a2 0233     		add	r3, r3, #2
 1150 00a4 3B62     		str	r3, [r7, #32]
 646:.\Generated_Source\PSoC4/StripLights.c **** 		f += ddF_x + 1;
 1151              		.loc 1 646 0
 1152 00a6 3B6A     		ldr	r3, [r7, #32]
 1153 00a8 0133     		add	r3, r3, #1
 1154 00aa 7A6A     		ldr	r2, [r7, #36]
 1155 00ac D318     		add	r3, r2, r3
 1156 00ae 7B62     		str	r3, [r7, #36]
 647:.\Generated_Source\PSoC4/StripLights.c **** 
 648:.\Generated_Source\PSoC4/StripLights.c **** 		StripLights_Pixel(x0 + x, y0 + y, color);
 1157              		.loc 1 648 0
 1158 00b0 FA68     		ldr	r2, [r7, #12]
 1159 00b2 BB69     		ldr	r3, [r7, #24]
 1160 00b4 D118     		add	r1, r2, r3
 1161 00b6 BA68     		ldr	r2, [r7, #8]
 1162 00b8 7B69     		ldr	r3, [r7, #20]
 1163 00ba D218     		add	r2, r2, r3
 1164 00bc 3B68     		ldr	r3, [r7]
 1165 00be 081C     		mov	r0, r1
 1166 00c0 111C     		mov	r1, r2
 1167 00c2 1A1C     		mov	r2, r3
 1168 00c4 FFF7FEFF 		bl	StripLights_Pixel
 649:.\Generated_Source\PSoC4/StripLights.c **** 		StripLights_Pixel(x0 - x, y0 + y, color);
 1169              		.loc 1 649 0
 1170 00c8 FA68     		ldr	r2, [r7, #12]
 1171 00ca BB69     		ldr	r3, [r7, #24]
ARM GAS  C:\Users\vangelis\AppData\Local\Temp\ccJoPsBk.s 			page 33


 1172 00cc D11A     		sub	r1, r2, r3
 1173 00ce BA68     		ldr	r2, [r7, #8]
 1174 00d0 7B69     		ldr	r3, [r7, #20]
 1175 00d2 D218     		add	r2, r2, r3
 1176 00d4 3B68     		ldr	r3, [r7]
 1177 00d6 081C     		mov	r0, r1
 1178 00d8 111C     		mov	r1, r2
 1179 00da 1A1C     		mov	r2, r3
 1180 00dc FFF7FEFF 		bl	StripLights_Pixel
 650:.\Generated_Source\PSoC4/StripLights.c **** 		StripLights_Pixel( x0 + x, y0 - y, color);
 1181              		.loc 1 650 0
 1182 00e0 FA68     		ldr	r2, [r7, #12]
 1183 00e2 BB69     		ldr	r3, [r7, #24]
 1184 00e4 D118     		add	r1, r2, r3
 1185 00e6 BA68     		ldr	r2, [r7, #8]
 1186 00e8 7B69     		ldr	r3, [r7, #20]
 1187 00ea D21A     		sub	r2, r2, r3
 1188 00ec 3B68     		ldr	r3, [r7]
 1189 00ee 081C     		mov	r0, r1
 1190 00f0 111C     		mov	r1, r2
 1191 00f2 1A1C     		mov	r2, r3
 1192 00f4 FFF7FEFF 		bl	StripLights_Pixel
 651:.\Generated_Source\PSoC4/StripLights.c **** 		StripLights_Pixel( x0 - x, y0 - y, color);
 1193              		.loc 1 651 0
 1194 00f8 FA68     		ldr	r2, [r7, #12]
 1195 00fa BB69     		ldr	r3, [r7, #24]
 1196 00fc D11A     		sub	r1, r2, r3
 1197 00fe BA68     		ldr	r2, [r7, #8]
 1198 0100 7B69     		ldr	r3, [r7, #20]
 1199 0102 D21A     		sub	r2, r2, r3
 1200 0104 3B68     		ldr	r3, [r7]
 1201 0106 081C     		mov	r0, r1
 1202 0108 111C     		mov	r1, r2
 1203 010a 1A1C     		mov	r2, r3
 1204 010c FFF7FEFF 		bl	StripLights_Pixel
 652:.\Generated_Source\PSoC4/StripLights.c **** 		StripLights_Pixel( x0 + y, y0 + x, color);
 1205              		.loc 1 652 0
 1206 0110 FA68     		ldr	r2, [r7, #12]
 1207 0112 7B69     		ldr	r3, [r7, #20]
 1208 0114 D118     		add	r1, r2, r3
 1209 0116 BA68     		ldr	r2, [r7, #8]
 1210 0118 BB69     		ldr	r3, [r7, #24]
 1211 011a D218     		add	r2, r2, r3
 1212 011c 3B68     		ldr	r3, [r7]
 1213 011e 081C     		mov	r0, r1
 1214 0120 111C     		mov	r1, r2
 1215 0122 1A1C     		mov	r2, r3
 1216 0124 FFF7FEFF 		bl	StripLights_Pixel
 653:.\Generated_Source\PSoC4/StripLights.c **** 		StripLights_Pixel( x0 - y, y0 + x, color);
 1217              		.loc 1 653 0
 1218 0128 FA68     		ldr	r2, [r7, #12]
 1219 012a 7B69     		ldr	r3, [r7, #20]
 1220 012c D11A     		sub	r1, r2, r3
 1221 012e BA68     		ldr	r2, [r7, #8]
 1222 0130 BB69     		ldr	r3, [r7, #24]
 1223 0132 D218     		add	r2, r2, r3
 1224 0134 3B68     		ldr	r3, [r7]
ARM GAS  C:\Users\vangelis\AppData\Local\Temp\ccJoPsBk.s 			page 34


 1225 0136 081C     		mov	r0, r1
 1226 0138 111C     		mov	r1, r2
 1227 013a 1A1C     		mov	r2, r3
 1228 013c FFF7FEFF 		bl	StripLights_Pixel
 654:.\Generated_Source\PSoC4/StripLights.c **** 		StripLights_Pixel( x0 + y, y0 - x, color);
 1229              		.loc 1 654 0
 1230 0140 FA68     		ldr	r2, [r7, #12]
 1231 0142 7B69     		ldr	r3, [r7, #20]
 1232 0144 D118     		add	r1, r2, r3
 1233 0146 BA68     		ldr	r2, [r7, #8]
 1234 0148 BB69     		ldr	r3, [r7, #24]
 1235 014a D21A     		sub	r2, r2, r3
 1236 014c 3B68     		ldr	r3, [r7]
 1237 014e 081C     		mov	r0, r1
 1238 0150 111C     		mov	r1, r2
 1239 0152 1A1C     		mov	r2, r3
 1240 0154 FFF7FEFF 		bl	StripLights_Pixel
 655:.\Generated_Source\PSoC4/StripLights.c **** 		StripLights_Pixel( x0 - y, y0 - x, color);
 1241              		.loc 1 655 0
 1242 0158 FA68     		ldr	r2, [r7, #12]
 1243 015a 7B69     		ldr	r3, [r7, #20]
 1244 015c D11A     		sub	r1, r2, r3
 1245 015e BA68     		ldr	r2, [r7, #8]
 1246 0160 BB69     		ldr	r3, [r7, #24]
 1247 0162 D21A     		sub	r2, r2, r3
 1248 0164 3B68     		ldr	r3, [r7]
 1249 0166 081C     		mov	r0, r1
 1250 0168 111C     		mov	r1, r2
 1251 016a 1A1C     		mov	r2, r3
 1252 016c FFF7FEFF 		bl	StripLights_Pixel
 1253              	.L53:
 636:.\Generated_Source\PSoC4/StripLights.c **** 	{
 1254              		.loc 1 636 0
 1255 0170 BA69     		ldr	r2, [r7, #24]
 1256 0172 7B69     		ldr	r3, [r7, #20]
 1257 0174 9A42     		cmp	r2, r3
 1258 0176 83DB     		blt	.L55
 656:.\Generated_Source\PSoC4/StripLights.c **** 	}
 657:.\Generated_Source\PSoC4/StripLights.c **** }
 1259              		.loc 1 657 0
 1260 0178 BD46     		mov	sp, r7
 1261 017a 0AB0     		add	sp, sp, #40
 1262              		@ sp needed
 1263 017c 80BD     		pop	{r7, pc}
 1264              		.cfi_endproc
 1265              	.LFE45:
 1266              		.size	StripLights_DrawCircle, .-StripLights_DrawCircle
 1267 017e C046     		.section	.text.StripLights_DrawLine,"ax",%progbits
 1268              		.align	2
 1269              		.global	StripLights_DrawLine
 1270              		.code	16
 1271              		.thumb_func
 1272              		.type	StripLights_DrawLine, %function
 1273              	StripLights_DrawLine:
 1274              	.LFB46:
 658:.\Generated_Source\PSoC4/StripLights.c **** 
 659:.\Generated_Source\PSoC4/StripLights.c **** 
ARM GAS  C:\Users\vangelis\AppData\Local\Temp\ccJoPsBk.s 			page 35


 660:.\Generated_Source\PSoC4/StripLights.c **** /*******************************************************************************
 661:.\Generated_Source\PSoC4/StripLights.c **** * Function Name: StripLights_DrawLine
 662:.\Generated_Source\PSoC4/StripLights.c **** ********************************************************************************
 663:.\Generated_Source\PSoC4/StripLights.c **** *
 664:.\Generated_Source\PSoC4/StripLights.c **** * Summary:
 665:.\Generated_Source\PSoC4/StripLights.c **** *  Draw a line on the display.  
 666:.\Generated_Source\PSoC4/StripLights.c **** *
 667:.\Generated_Source\PSoC4/StripLights.c **** * Parameters:  
 668:.\Generated_Source\PSoC4/StripLights.c **** *  x0, y0:  The beginning endpoint
 669:.\Generated_Source\PSoC4/StripLights.c **** *  x1, y1:  The end endpoint.
 670:.\Generated_Source\PSoC4/StripLights.c **** *  color:   Color of the line.
 671:.\Generated_Source\PSoC4/StripLights.c **** *
 672:.\Generated_Source\PSoC4/StripLights.c **** * Return: 
 673:.\Generated_Source\PSoC4/StripLights.c **** *  None 
 674:.\Generated_Source\PSoC4/StripLights.c **** *  
 675:.\Generated_Source\PSoC4/StripLights.c **** *******************************************************************************/
 676:.\Generated_Source\PSoC4/StripLights.c **** void StripLights_DrawLine(int32 x0, int32 y0, int32 x1, int32 y1, uint32 color)
 677:.\Generated_Source\PSoC4/StripLights.c **** {
 1275              		.loc 1 677 0
 1276              		.cfi_startproc
 1277 0000 80B5     		push	{r7, lr}
 1278              		.cfi_def_cfa_offset 8
 1279              		.cfi_offset 7, -8
 1280              		.cfi_offset 14, -4
 1281 0002 8AB0     		sub	sp, sp, #40
 1282              		.cfi_def_cfa_offset 48
 1283 0004 00AF     		add	r7, sp, #0
 1284              		.cfi_def_cfa_register 7
 1285 0006 F860     		str	r0, [r7, #12]
 1286 0008 B960     		str	r1, [r7, #8]
 1287 000a 7A60     		str	r2, [r7, #4]
 1288 000c 3B60     		str	r3, [r7]
 678:.\Generated_Source\PSoC4/StripLights.c **** 	int32 dy = y1 - y0; /* Difference between y0 and y1 */
 1289              		.loc 1 678 0
 1290 000e 3A68     		ldr	r2, [r7]
 1291 0010 BB68     		ldr	r3, [r7, #8]
 1292 0012 D31A     		sub	r3, r2, r3
 1293 0014 7B62     		str	r3, [r7, #36]
 679:.\Generated_Source\PSoC4/StripLights.c **** 	int32 dx = x1 - x0; /* Difference between x0 and x1 */
 1294              		.loc 1 679 0
 1295 0016 7A68     		ldr	r2, [r7, #4]
 1296 0018 FB68     		ldr	r3, [r7, #12]
 1297 001a D31A     		sub	r3, r2, r3
 1298 001c 3B62     		str	r3, [r7, #32]
 680:.\Generated_Source\PSoC4/StripLights.c **** 	int32 stepx, stepy;
 681:.\Generated_Source\PSoC4/StripLights.c **** 
 682:.\Generated_Source\PSoC4/StripLights.c **** 	if (dy < 0)
 1299              		.loc 1 682 0
 1300 001e 7B6A     		ldr	r3, [r7, #36]
 1301 0020 002B     		cmp	r3, #0
 1302 0022 06DA     		bge	.L57
 683:.\Generated_Source\PSoC4/StripLights.c **** 	{
 684:.\Generated_Source\PSoC4/StripLights.c **** 		dy = -dy;
 1303              		.loc 1 684 0
 1304 0024 7B6A     		ldr	r3, [r7, #36]
 1305 0026 5B42     		neg	r3, r3
 1306 0028 7B62     		str	r3, [r7, #36]
ARM GAS  C:\Users\vangelis\AppData\Local\Temp\ccJoPsBk.s 			page 36


 685:.\Generated_Source\PSoC4/StripLights.c **** 		stepy = -1;
 1307              		.loc 1 685 0
 1308 002a 0123     		mov	r3, #1
 1309 002c 5B42     		neg	r3, r3
 1310 002e BB61     		str	r3, [r7, #24]
 1311 0030 01E0     		b	.L58
 1312              	.L57:
 686:.\Generated_Source\PSoC4/StripLights.c **** 	}
 687:.\Generated_Source\PSoC4/StripLights.c **** 	else
 688:.\Generated_Source\PSoC4/StripLights.c **** 	{
 689:.\Generated_Source\PSoC4/StripLights.c **** 		stepy = 1;
 1313              		.loc 1 689 0
 1314 0032 0123     		mov	r3, #1
 1315 0034 BB61     		str	r3, [r7, #24]
 1316              	.L58:
 690:.\Generated_Source\PSoC4/StripLights.c **** 	}
 691:.\Generated_Source\PSoC4/StripLights.c **** 
 692:.\Generated_Source\PSoC4/StripLights.c **** 	if (dx < 0)
 1317              		.loc 1 692 0
 1318 0036 3B6A     		ldr	r3, [r7, #32]
 1319 0038 002B     		cmp	r3, #0
 1320 003a 06DA     		bge	.L59
 693:.\Generated_Source\PSoC4/StripLights.c **** 	{
 694:.\Generated_Source\PSoC4/StripLights.c **** 		dx = -dx;
 1321              		.loc 1 694 0
 1322 003c 3B6A     		ldr	r3, [r7, #32]
 1323 003e 5B42     		neg	r3, r3
 1324 0040 3B62     		str	r3, [r7, #32]
 695:.\Generated_Source\PSoC4/StripLights.c **** 		stepx = -1;
 1325              		.loc 1 695 0
 1326 0042 0123     		mov	r3, #1
 1327 0044 5B42     		neg	r3, r3
 1328 0046 FB61     		str	r3, [r7, #28]
 1329 0048 01E0     		b	.L60
 1330              	.L59:
 696:.\Generated_Source\PSoC4/StripLights.c **** 	}
 697:.\Generated_Source\PSoC4/StripLights.c **** 	else
 698:.\Generated_Source\PSoC4/StripLights.c **** 	{
 699:.\Generated_Source\PSoC4/StripLights.c **** 		stepx = 1;
 1331              		.loc 1 699 0
 1332 004a 0123     		mov	r3, #1
 1333 004c FB61     		str	r3, [r7, #28]
 1334              	.L60:
 700:.\Generated_Source\PSoC4/StripLights.c **** 	}
 701:.\Generated_Source\PSoC4/StripLights.c **** 
 702:.\Generated_Source\PSoC4/StripLights.c **** 	dy <<= 1; /* dy is now 2*dy  */
 1335              		.loc 1 702 0
 1336 004e 7B6A     		ldr	r3, [r7, #36]
 1337 0050 5B00     		lsl	r3, r3, #1
 1338 0052 7B62     		str	r3, [r7, #36]
 703:.\Generated_Source\PSoC4/StripLights.c **** 	dx <<= 1; /* dx is now 2*dx  */
 1339              		.loc 1 703 0
 1340 0054 3B6A     		ldr	r3, [r7, #32]
 1341 0056 5B00     		lsl	r3, r3, #1
 1342 0058 3B62     		str	r3, [r7, #32]
 704:.\Generated_Source\PSoC4/StripLights.c **** 	StripLights_Pixel(x0, y0, color);
 1343              		.loc 1 704 0
ARM GAS  C:\Users\vangelis\AppData\Local\Temp\ccJoPsBk.s 			page 37


 1344 005a F968     		ldr	r1, [r7, #12]
 1345 005c BA68     		ldr	r2, [r7, #8]
 1346 005e 3B6B     		ldr	r3, [r7, #48]
 1347 0060 081C     		mov	r0, r1
 1348 0062 111C     		mov	r1, r2
 1349 0064 1A1C     		mov	r2, r3
 1350 0066 FFF7FEFF 		bl	StripLights_Pixel
 705:.\Generated_Source\PSoC4/StripLights.c **** 
 706:.\Generated_Source\PSoC4/StripLights.c **** 	if (dx > dy) 
 1351              		.loc 1 706 0
 1352 006a 3A6A     		ldr	r2, [r7, #32]
 1353 006c 7B6A     		ldr	r3, [r7, #36]
 1354 006e 9A42     		cmp	r2, r3
 1355 0070 25DD     		ble	.L61
 1356              	.LBB2:
 707:.\Generated_Source\PSoC4/StripLights.c **** 	{
 708:.\Generated_Source\PSoC4/StripLights.c **** 		int fraction = dy - (dx >> 1);
 1357              		.loc 1 708 0
 1358 0072 3B6A     		ldr	r3, [r7, #32]
 1359 0074 5B10     		asr	r3, r3, #1
 1360 0076 7A6A     		ldr	r2, [r7, #36]
 1361 0078 D31A     		sub	r3, r2, r3
 1362 007a 7B61     		str	r3, [r7, #20]
 709:.\Generated_Source\PSoC4/StripLights.c **** 		while (x0 != x1)
 1363              		.loc 1 709 0
 1364 007c 1AE0     		b	.L62
 1365              	.L64:
 710:.\Generated_Source\PSoC4/StripLights.c **** 		{
 711:.\Generated_Source\PSoC4/StripLights.c **** 			if (fraction >= 0)
 1366              		.loc 1 711 0
 1367 007e 7B69     		ldr	r3, [r7, #20]
 1368 0080 002B     		cmp	r3, #0
 1369 0082 07DB     		blt	.L63
 712:.\Generated_Source\PSoC4/StripLights.c **** 			{
 713:.\Generated_Source\PSoC4/StripLights.c **** 				y0 += stepy;
 1370              		.loc 1 713 0
 1371 0084 BA68     		ldr	r2, [r7, #8]
 1372 0086 BB69     		ldr	r3, [r7, #24]
 1373 0088 D318     		add	r3, r2, r3
 1374 008a BB60     		str	r3, [r7, #8]
 714:.\Generated_Source\PSoC4/StripLights.c **** 				fraction -= dx;
 1375              		.loc 1 714 0
 1376 008c 7A69     		ldr	r2, [r7, #20]
 1377 008e 3B6A     		ldr	r3, [r7, #32]
 1378 0090 D31A     		sub	r3, r2, r3
 1379 0092 7B61     		str	r3, [r7, #20]
 1380              	.L63:
 715:.\Generated_Source\PSoC4/StripLights.c **** 			}
 716:.\Generated_Source\PSoC4/StripLights.c **** 			x0 += stepx;
 1381              		.loc 1 716 0
 1382 0094 FA68     		ldr	r2, [r7, #12]
 1383 0096 FB69     		ldr	r3, [r7, #28]
 1384 0098 D318     		add	r3, r2, r3
 1385 009a FB60     		str	r3, [r7, #12]
 717:.\Generated_Source\PSoC4/StripLights.c **** 			fraction += dy;
 1386              		.loc 1 717 0
 1387 009c 7A69     		ldr	r2, [r7, #20]
ARM GAS  C:\Users\vangelis\AppData\Local\Temp\ccJoPsBk.s 			page 38


 1388 009e 7B6A     		ldr	r3, [r7, #36]
 1389 00a0 D318     		add	r3, r2, r3
 1390 00a2 7B61     		str	r3, [r7, #20]
 718:.\Generated_Source\PSoC4/StripLights.c **** 			StripLights_Pixel(x0, y0, color);
 1391              		.loc 1 718 0
 1392 00a4 F968     		ldr	r1, [r7, #12]
 1393 00a6 BA68     		ldr	r2, [r7, #8]
 1394 00a8 3B6B     		ldr	r3, [r7, #48]
 1395 00aa 081C     		mov	r0, r1
 1396 00ac 111C     		mov	r1, r2
 1397 00ae 1A1C     		mov	r2, r3
 1398 00b0 FFF7FEFF 		bl	StripLights_Pixel
 1399              	.L62:
 709:.\Generated_Source\PSoC4/StripLights.c **** 		{
 1400              		.loc 1 709 0
 1401 00b4 FA68     		ldr	r2, [r7, #12]
 1402 00b6 7B68     		ldr	r3, [r7, #4]
 1403 00b8 9A42     		cmp	r2, r3
 1404 00ba E0D1     		bne	.L64
 1405              	.LBE2:
 1406 00bc 24E0     		b	.L56
 1407              	.L61:
 1408              	.LBB3:
 719:.\Generated_Source\PSoC4/StripLights.c **** 		}
 720:.\Generated_Source\PSoC4/StripLights.c **** 	}
 721:.\Generated_Source\PSoC4/StripLights.c **** 	else
 722:.\Generated_Source\PSoC4/StripLights.c **** 	{
 723:.\Generated_Source\PSoC4/StripLights.c **** 		int fraction = dx - (dy >> 1);
 1409              		.loc 1 723 0
 1410 00be 7B6A     		ldr	r3, [r7, #36]
 1411 00c0 5B10     		asr	r3, r3, #1
 1412 00c2 3A6A     		ldr	r2, [r7, #32]
 1413 00c4 D31A     		sub	r3, r2, r3
 1414 00c6 3B61     		str	r3, [r7, #16]
 724:.\Generated_Source\PSoC4/StripLights.c **** 		while (y0 != y1)
 1415              		.loc 1 724 0
 1416 00c8 1AE0     		b	.L66
 1417              	.L68:
 725:.\Generated_Source\PSoC4/StripLights.c **** 		{
 726:.\Generated_Source\PSoC4/StripLights.c **** 			if (fraction >= 0)
 1418              		.loc 1 726 0
 1419 00ca 3B69     		ldr	r3, [r7, #16]
 1420 00cc 002B     		cmp	r3, #0
 1421 00ce 07DB     		blt	.L67
 727:.\Generated_Source\PSoC4/StripLights.c **** 			{
 728:.\Generated_Source\PSoC4/StripLights.c **** 				x0 += stepx;
 1422              		.loc 1 728 0
 1423 00d0 FA68     		ldr	r2, [r7, #12]
 1424 00d2 FB69     		ldr	r3, [r7, #28]
 1425 00d4 D318     		add	r3, r2, r3
 1426 00d6 FB60     		str	r3, [r7, #12]
 729:.\Generated_Source\PSoC4/StripLights.c **** 				fraction -= dy;
 1427              		.loc 1 729 0
 1428 00d8 3A69     		ldr	r2, [r7, #16]
 1429 00da 7B6A     		ldr	r3, [r7, #36]
 1430 00dc D31A     		sub	r3, r2, r3
 1431 00de 3B61     		str	r3, [r7, #16]
ARM GAS  C:\Users\vangelis\AppData\Local\Temp\ccJoPsBk.s 			page 39


 1432              	.L67:
 730:.\Generated_Source\PSoC4/StripLights.c **** 			}
 731:.\Generated_Source\PSoC4/StripLights.c **** 			y0 += stepy;
 1433              		.loc 1 731 0
 1434 00e0 BA68     		ldr	r2, [r7, #8]
 1435 00e2 BB69     		ldr	r3, [r7, #24]
 1436 00e4 D318     		add	r3, r2, r3
 1437 00e6 BB60     		str	r3, [r7, #8]
 732:.\Generated_Source\PSoC4/StripLights.c **** 			fraction += dx;
 1438              		.loc 1 732 0
 1439 00e8 3A69     		ldr	r2, [r7, #16]
 1440 00ea 3B6A     		ldr	r3, [r7, #32]
 1441 00ec D318     		add	r3, r2, r3
 1442 00ee 3B61     		str	r3, [r7, #16]
 733:.\Generated_Source\PSoC4/StripLights.c **** 			StripLights_Pixel( x0, y0, color);
 1443              		.loc 1 733 0
 1444 00f0 F968     		ldr	r1, [r7, #12]
 1445 00f2 BA68     		ldr	r2, [r7, #8]
 1446 00f4 3B6B     		ldr	r3, [r7, #48]
 1447 00f6 081C     		mov	r0, r1
 1448 00f8 111C     		mov	r1, r2
 1449 00fa 1A1C     		mov	r2, r3
 1450 00fc FFF7FEFF 		bl	StripLights_Pixel
 1451              	.L66:
 724:.\Generated_Source\PSoC4/StripLights.c **** 		{
 1452              		.loc 1 724 0
 1453 0100 BA68     		ldr	r2, [r7, #8]
 1454 0102 3B68     		ldr	r3, [r7]
 1455 0104 9A42     		cmp	r2, r3
 1456 0106 E0D1     		bne	.L68
 1457              	.L56:
 1458              	.LBE3:
 734:.\Generated_Source\PSoC4/StripLights.c **** 		}
 735:.\Generated_Source\PSoC4/StripLights.c **** 	}
 736:.\Generated_Source\PSoC4/StripLights.c **** }
 1459              		.loc 1 736 0
 1460 0108 BD46     		mov	sp, r7
 1461 010a 0AB0     		add	sp, sp, #40
 1462              		@ sp needed
 1463 010c 80BD     		pop	{r7, pc}
 1464              		.cfi_endproc
 1465              	.LFE46:
 1466              		.size	StripLights_DrawLine, .-StripLights_DrawLine
 1467 010e C046     		.section	.text.StripLights_DrawRect,"ax",%progbits
 1468              		.align	2
 1469              		.global	StripLights_DrawRect
 1470              		.code	16
 1471              		.thumb_func
 1472              		.type	StripLights_DrawRect, %function
 1473              	StripLights_DrawRect:
 1474              	.LFB47:
 737:.\Generated_Source\PSoC4/StripLights.c **** 
 738:.\Generated_Source\PSoC4/StripLights.c **** /*******************************************************************************
 739:.\Generated_Source\PSoC4/StripLights.c **** * Function Name: StripLights_DrawRect
 740:.\Generated_Source\PSoC4/StripLights.c **** ********************************************************************************
 741:.\Generated_Source\PSoC4/StripLights.c **** *
 742:.\Generated_Source\PSoC4/StripLights.c **** * Summary:
ARM GAS  C:\Users\vangelis\AppData\Local\Temp\ccJoPsBk.s 			page 40


 743:.\Generated_Source\PSoC4/StripLights.c **** *  Draw a rectangle, filled or not.  
 744:.\Generated_Source\PSoC4/StripLights.c **** *
 745:.\Generated_Source\PSoC4/StripLights.c **** * Parameters:  
 746:.\Generated_Source\PSoC4/StripLights.c **** *  x0, y0:  The upper lefthand corner.
 747:.\Generated_Source\PSoC4/StripLights.c **** *  x1, y1:  The lower right corner.
 748:.\Generated_Source\PSoC4/StripLights.c **** *  fill:    Non-Zero if retangle is to be filled.
 749:.\Generated_Source\PSoC4/StripLights.c **** *  color:   Color for rectangle, border and fill.
 750:.\Generated_Source\PSoC4/StripLights.c **** *
 751:.\Generated_Source\PSoC4/StripLights.c **** * Return: 
 752:.\Generated_Source\PSoC4/StripLights.c **** *  None 
 753:.\Generated_Source\PSoC4/StripLights.c **** *  
 754:.\Generated_Source\PSoC4/StripLights.c **** *******************************************************************************/
 755:.\Generated_Source\PSoC4/StripLights.c **** void StripLights_DrawRect(int32 x0, int32 y0, int32 x1, int32 y1, int32 fill, uint32 color)
 756:.\Generated_Source\PSoC4/StripLights.c **** {	
 1475              		.loc 1 756 0
 1476              		.cfi_startproc
 1477 0000 90B5     		push	{r4, r7, lr}
 1478              		.cfi_def_cfa_offset 12
 1479              		.cfi_offset 4, -12
 1480              		.cfi_offset 7, -8
 1481              		.cfi_offset 14, -4
 1482 0002 89B0     		sub	sp, sp, #36
 1483              		.cfi_def_cfa_offset 48
 1484 0004 02AF     		add	r7, sp, #8
 1485              		.cfi_def_cfa 7, 40
 1486 0006 F860     		str	r0, [r7, #12]
 1487 0008 B960     		str	r1, [r7, #8]
 1488 000a 7A60     		str	r2, [r7, #4]
 1489 000c 3B60     		str	r3, [r7]
 757:.\Generated_Source\PSoC4/StripLights.c ****      int xDiff;
 758:.\Generated_Source\PSoC4/StripLights.c **** 	/* Check if the rectangle is to be filled    */
 759:.\Generated_Source\PSoC4/StripLights.c **** 	if (fill != 0)
 1490              		.loc 1 759 0
 1491 000e BB6A     		ldr	r3, [r7, #40]
 1492 0010 002B     		cmp	r3, #0
 1493 0012 28D0     		beq	.L70
 760:.\Generated_Source\PSoC4/StripLights.c **** 	{	
 761:.\Generated_Source\PSoC4/StripLights.c ****         /* Find the difference between the x vars */
 762:.\Generated_Source\PSoC4/StripLights.c **** 		if(x0 > x1)
 1494              		.loc 1 762 0
 1495 0014 FA68     		ldr	r2, [r7, #12]
 1496 0016 7B68     		ldr	r3, [r7, #4]
 1497 0018 9A42     		cmp	r2, r3
 1498 001a 04DD     		ble	.L71
 763:.\Generated_Source\PSoC4/StripLights.c **** 		{
 764:.\Generated_Source\PSoC4/StripLights.c **** 			xDiff = x0 - x1; 
 1499              		.loc 1 764 0
 1500 001c FA68     		ldr	r2, [r7, #12]
 1501 001e 7B68     		ldr	r3, [r7, #4]
 1502 0020 D31A     		sub	r3, r2, r3
 1503 0022 7B61     		str	r3, [r7, #20]
 1504 0024 03E0     		b	.L72
 1505              	.L71:
 765:.\Generated_Source\PSoC4/StripLights.c **** 		}
 766:.\Generated_Source\PSoC4/StripLights.c **** 		else
 767:.\Generated_Source\PSoC4/StripLights.c **** 		{
 768:.\Generated_Source\PSoC4/StripLights.c **** 			xDiff = x1 - x0;
ARM GAS  C:\Users\vangelis\AppData\Local\Temp\ccJoPsBk.s 			page 41


 1506              		.loc 1 768 0
 1507 0026 7A68     		ldr	r2, [r7, #4]
 1508 0028 FB68     		ldr	r3, [r7, #12]
 1509 002a D31A     		sub	r3, r2, r3
 1510 002c 7B61     		str	r3, [r7, #20]
 1511              	.L72:
 769:.\Generated_Source\PSoC4/StripLights.c **** 		}
 770:.\Generated_Source\PSoC4/StripLights.c **** 	
 771:.\Generated_Source\PSoC4/StripLights.c **** 	    /* Fill it with lines  */
 772:.\Generated_Source\PSoC4/StripLights.c **** 		while(xDiff >= 0)
 1512              		.loc 1 772 0
 1513 002e 16E0     		b	.L73
 1514              	.L76:
 773:.\Generated_Source\PSoC4/StripLights.c **** 		{
 774:.\Generated_Source\PSoC4/StripLights.c **** 			StripLights_DrawLine(x0, y0, x0, y1, color);
 1515              		.loc 1 774 0
 1516 0030 F868     		ldr	r0, [r7, #12]
 1517 0032 B968     		ldr	r1, [r7, #8]
 1518 0034 FA68     		ldr	r2, [r7, #12]
 1519 0036 3C68     		ldr	r4, [r7]
 1520 0038 FB6A     		ldr	r3, [r7, #44]
 1521 003a 0093     		str	r3, [sp]
 1522 003c 231C     		mov	r3, r4
 1523 003e FFF7FEFF 		bl	StripLights_DrawLine
 775:.\Generated_Source\PSoC4/StripLights.c **** 		
 776:.\Generated_Source\PSoC4/StripLights.c **** 			if(x0 > x1)
 1524              		.loc 1 776 0
 1525 0042 FA68     		ldr	r2, [r7, #12]
 1526 0044 7B68     		ldr	r3, [r7, #4]
 1527 0046 9A42     		cmp	r2, r3
 1528 0048 03DD     		ble	.L74
 777:.\Generated_Source\PSoC4/StripLights.c **** 				x0--;
 1529              		.loc 1 777 0
 1530 004a FB68     		ldr	r3, [r7, #12]
 1531 004c 013B     		sub	r3, r3, #1
 1532 004e FB60     		str	r3, [r7, #12]
 1533 0050 02E0     		b	.L75
 1534              	.L74:
 778:.\Generated_Source\PSoC4/StripLights.c **** 			else
 779:.\Generated_Source\PSoC4/StripLights.c **** 				x0++;
 1535              		.loc 1 779 0
 1536 0052 FB68     		ldr	r3, [r7, #12]
 1537 0054 0133     		add	r3, r3, #1
 1538 0056 FB60     		str	r3, [r7, #12]
 1539              	.L75:
 780:.\Generated_Source\PSoC4/StripLights.c **** 		
 781:.\Generated_Source\PSoC4/StripLights.c **** 			xDiff--;
 1540              		.loc 1 781 0
 1541 0058 7B69     		ldr	r3, [r7, #20]
 1542 005a 013B     		sub	r3, r3, #1
 1543 005c 7B61     		str	r3, [r7, #20]
 1544              	.L73:
 772:.\Generated_Source\PSoC4/StripLights.c **** 		{
 1545              		.loc 1 772 0
 1546 005e 7B69     		ldr	r3, [r7, #20]
 1547 0060 002B     		cmp	r3, #0
 1548 0062 E5DA     		bge	.L76
ARM GAS  C:\Users\vangelis\AppData\Local\Temp\ccJoPsBk.s 			page 42


 1549 0064 23E0     		b	.L69
 1550              	.L70:
 782:.\Generated_Source\PSoC4/StripLights.c **** 		}
 783:.\Generated_Source\PSoC4/StripLights.c **** 
 784:.\Generated_Source\PSoC4/StripLights.c **** 	}
 785:.\Generated_Source\PSoC4/StripLights.c **** 	else 
 786:.\Generated_Source\PSoC4/StripLights.c **** 	{
 787:.\Generated_Source\PSoC4/StripLights.c **** 		/* Draw the four sides of the rectangle */
 788:.\Generated_Source\PSoC4/StripLights.c **** 		StripLights_DrawLine(x0, y0, x1, y0, color);
 1551              		.loc 1 788 0
 1552 0066 F868     		ldr	r0, [r7, #12]
 1553 0068 B968     		ldr	r1, [r7, #8]
 1554 006a 7A68     		ldr	r2, [r7, #4]
 1555 006c BC68     		ldr	r4, [r7, #8]
 1556 006e FB6A     		ldr	r3, [r7, #44]
 1557 0070 0093     		str	r3, [sp]
 1558 0072 231C     		mov	r3, r4
 1559 0074 FFF7FEFF 		bl	StripLights_DrawLine
 789:.\Generated_Source\PSoC4/StripLights.c **** 		StripLights_DrawLine(x0, y1, x1, y1, color);
 1560              		.loc 1 789 0
 1561 0078 F868     		ldr	r0, [r7, #12]
 1562 007a 3968     		ldr	r1, [r7]
 1563 007c 7A68     		ldr	r2, [r7, #4]
 1564 007e 3C68     		ldr	r4, [r7]
 1565 0080 FB6A     		ldr	r3, [r7, #44]
 1566 0082 0093     		str	r3, [sp]
 1567 0084 231C     		mov	r3, r4
 1568 0086 FFF7FEFF 		bl	StripLights_DrawLine
 790:.\Generated_Source\PSoC4/StripLights.c **** 		StripLights_DrawLine(x0, y0, x0, y1, color);
 1569              		.loc 1 790 0
 1570 008a F868     		ldr	r0, [r7, #12]
 1571 008c B968     		ldr	r1, [r7, #8]
 1572 008e FA68     		ldr	r2, [r7, #12]
 1573 0090 3C68     		ldr	r4, [r7]
 1574 0092 FB6A     		ldr	r3, [r7, #44]
 1575 0094 0093     		str	r3, [sp]
 1576 0096 231C     		mov	r3, r4
 1577 0098 FFF7FEFF 		bl	StripLights_DrawLine
 791:.\Generated_Source\PSoC4/StripLights.c **** 		StripLights_DrawLine(x1, y0, x1, y1, color);
 1578              		.loc 1 791 0
 1579 009c 7868     		ldr	r0, [r7, #4]
 1580 009e B968     		ldr	r1, [r7, #8]
 1581 00a0 7A68     		ldr	r2, [r7, #4]
 1582 00a2 3C68     		ldr	r4, [r7]
 1583 00a4 FB6A     		ldr	r3, [r7, #44]
 1584 00a6 0093     		str	r3, [sp]
 1585 00a8 231C     		mov	r3, r4
 1586 00aa FFF7FEFF 		bl	StripLights_DrawLine
 1587              	.L69:
 792:.\Generated_Source\PSoC4/StripLights.c **** 	}
 793:.\Generated_Source\PSoC4/StripLights.c **** }
 1588              		.loc 1 793 0
 1589 00ae BD46     		mov	sp, r7
 1590 00b0 07B0     		add	sp, sp, #28
 1591              		@ sp needed
 1592 00b2 90BD     		pop	{r4, r7, pc}
 1593              		.cfi_endproc
ARM GAS  C:\Users\vangelis\AppData\Local\Temp\ccJoPsBk.s 			page 43


 1594              	.LFE47:
 1595              		.size	StripLights_DrawRect, .-StripLights_DrawRect
 1596              		.section	.text.StripLights_Dim,"ax",%progbits
 1597              		.align	2
 1598              		.global	StripLights_Dim
 1599              		.code	16
 1600              		.thumb_func
 1601              		.type	StripLights_Dim, %function
 1602              	StripLights_Dim:
 1603              	.LFB48:
 794:.\Generated_Source\PSoC4/StripLights.c **** 
 795:.\Generated_Source\PSoC4/StripLights.c **** /*******************************************************************************
 796:.\Generated_Source\PSoC4/StripLights.c **** * Function Name: StripLights_Dim
 797:.\Generated_Source\PSoC4/StripLights.c **** ********************************************************************************
 798:.\Generated_Source\PSoC4/StripLights.c **** *
 799:.\Generated_Source\PSoC4/StripLights.c **** * Summary:
 800:.\Generated_Source\PSoC4/StripLights.c **** *  Dim all output by a specific level (0,1,2,3,4)  
 801:.\Generated_Source\PSoC4/StripLights.c **** *
 802:.\Generated_Source\PSoC4/StripLights.c **** * Parameters:  
 803:.\Generated_Source\PSoC4/StripLights.c **** *  dimLevel:  Dim level 1 to 4, 0 => No dimming.
 804:.\Generated_Source\PSoC4/StripLights.c **** *
 805:.\Generated_Source\PSoC4/StripLights.c **** * Return: 
 806:.\Generated_Source\PSoC4/StripLights.c **** *  None 
 807:.\Generated_Source\PSoC4/StripLights.c **** *  
 808:.\Generated_Source\PSoC4/StripLights.c **** *******************************************************************************/
 809:.\Generated_Source\PSoC4/StripLights.c **** void StripLights_Dim(uint32 dimLevel) 
 810:.\Generated_Source\PSoC4/StripLights.c **** {
 1604              		.loc 1 810 0
 1605              		.cfi_startproc
 1606 0000 80B5     		push	{r7, lr}
 1607              		.cfi_def_cfa_offset 8
 1608              		.cfi_offset 7, -8
 1609              		.cfi_offset 14, -4
 1610 0002 82B0     		sub	sp, sp, #8
 1611              		.cfi_def_cfa_offset 16
 1612 0004 00AF     		add	r7, sp, #0
 1613              		.cfi_def_cfa_register 7
 1614 0006 7860     		str	r0, [r7, #4]
 811:.\Generated_Source\PSoC4/StripLights.c **** extern uint32  StripLights_DimMask;
 812:.\Generated_Source\PSoC4/StripLights.c **** extern uint32  StripLights_DimShift;
 813:.\Generated_Source\PSoC4/StripLights.c **** 
 814:.\Generated_Source\PSoC4/StripLights.c ****     switch(dimLevel)
 1615              		.loc 1 814 0
 1616 0008 7B68     		ldr	r3, [r7, #4]
 1617 000a 022B     		cmp	r3, #2
 1618 000c 0FD0     		beq	.L80
 1619 000e 02D8     		bhi	.L81
 1620 0010 012B     		cmp	r3, #1
 1621 0012 05D0     		beq	.L82
 1622 0014 20E0     		b	.L79
 1623              	.L81:
 1624 0016 032B     		cmp	r3, #3
 1625 0018 10D0     		beq	.L83
 1626 001a 042B     		cmp	r3, #4
 1627 001c 15D0     		beq	.L84
 1628 001e 1BE0     		b	.L79
 1629              	.L82:
ARM GAS  C:\Users\vangelis\AppData\Local\Temp\ccJoPsBk.s 			page 44


 815:.\Generated_Source\PSoC4/StripLights.c ****     {
 816:.\Generated_Source\PSoC4/StripLights.c ****        case 1:  // 1/2 bright
 817:.\Generated_Source\PSoC4/StripLights.c ****            StripLights_DimMask = 0x007F7F7F;
 1630              		.loc 1 817 0
 1631 0020 124B     		ldr	r3, .L86
 1632 0022 134A     		ldr	r2, .L86+4
 1633 0024 1A60     		str	r2, [r3]
 818:.\Generated_Source\PSoC4/StripLights.c ****            StripLights_DimShift = 1;
 1634              		.loc 1 818 0
 1635 0026 134B     		ldr	r3, .L86+8
 1636 0028 0122     		mov	r2, #1
 1637 002a 1A60     		str	r2, [r3]
 819:.\Generated_Source\PSoC4/StripLights.c ****            break;
 1638              		.loc 1 819 0
 1639 002c 1BE0     		b	.L78
 1640              	.L80:
 820:.\Generated_Source\PSoC4/StripLights.c ****            
 821:.\Generated_Source\PSoC4/StripLights.c ****        case 2:
 822:.\Generated_Source\PSoC4/StripLights.c ****            StripLights_DimMask = 0x003F3F3F;
 1641              		.loc 1 822 0
 1642 002e 0F4B     		ldr	r3, .L86
 1643 0030 114A     		ldr	r2, .L86+12
 1644 0032 1A60     		str	r2, [r3]
 823:.\Generated_Source\PSoC4/StripLights.c ****            StripLights_DimShift = 2;
 1645              		.loc 1 823 0
 1646 0034 0F4B     		ldr	r3, .L86+8
 1647 0036 0222     		mov	r2, #2
 1648 0038 1A60     		str	r2, [r3]
 824:.\Generated_Source\PSoC4/StripLights.c ****            break;
 1649              		.loc 1 824 0
 1650 003a 14E0     		b	.L78
 1651              	.L83:
 825:.\Generated_Source\PSoC4/StripLights.c ****            
 826:.\Generated_Source\PSoC4/StripLights.c ****        case 3:
 827:.\Generated_Source\PSoC4/StripLights.c ****            StripLights_DimMask = 0x001F1F1F;
 1652              		.loc 1 827 0
 1653 003c 0B4B     		ldr	r3, .L86
 1654 003e 0F4A     		ldr	r2, .L86+16
 1655 0040 1A60     		str	r2, [r3]
 828:.\Generated_Source\PSoC4/StripLights.c ****            StripLights_DimShift = 3;
 1656              		.loc 1 828 0
 1657 0042 0C4B     		ldr	r3, .L86+8
 1658 0044 0322     		mov	r2, #3
 1659 0046 1A60     		str	r2, [r3]
 829:.\Generated_Source\PSoC4/StripLights.c ****            break;
 1660              		.loc 1 829 0
 1661 0048 0DE0     		b	.L78
 1662              	.L84:
 830:.\Generated_Source\PSoC4/StripLights.c ****            
 831:.\Generated_Source\PSoC4/StripLights.c ****        case 4:
 832:.\Generated_Source\PSoC4/StripLights.c ****            StripLights_DimMask = 0x000F0F0F;
 1663              		.loc 1 832 0
 1664 004a 084B     		ldr	r3, .L86
 1665 004c 0C4A     		ldr	r2, .L86+20
 1666 004e 1A60     		str	r2, [r3]
 833:.\Generated_Source\PSoC4/StripLights.c ****            StripLights_DimShift = 4;
 1667              		.loc 1 833 0
ARM GAS  C:\Users\vangelis\AppData\Local\Temp\ccJoPsBk.s 			page 45


 1668 0050 084B     		ldr	r3, .L86+8
 1669 0052 0422     		mov	r2, #4
 1670 0054 1A60     		str	r2, [r3]
 834:.\Generated_Source\PSoC4/StripLights.c ****            break;
 1671              		.loc 1 834 0
 1672 0056 06E0     		b	.L78
 1673              	.L79:
 835:.\Generated_Source\PSoC4/StripLights.c ****            
 836:.\Generated_Source\PSoC4/StripLights.c ****        default:
 837:.\Generated_Source\PSoC4/StripLights.c ****            StripLights_DimMask = 0x00FFFFFF;
 1674              		.loc 1 837 0
 1675 0058 044B     		ldr	r3, .L86
 1676 005a 0A4A     		ldr	r2, .L86+24
 1677 005c 1A60     		str	r2, [r3]
 838:.\Generated_Source\PSoC4/StripLights.c ****            StripLights_DimShift = 0;
 1678              		.loc 1 838 0
 1679 005e 054B     		ldr	r3, .L86+8
 1680 0060 0022     		mov	r2, #0
 1681 0062 1A60     		str	r2, [r3]
 839:.\Generated_Source\PSoC4/StripLights.c ****            break;
 1682              		.loc 1 839 0
 1683 0064 C046     		mov	r8, r8
 1684              	.L78:
 840:.\Generated_Source\PSoC4/StripLights.c ****         
 841:.\Generated_Source\PSoC4/StripLights.c ****     }
 842:.\Generated_Source\PSoC4/StripLights.c **** }
 1685              		.loc 1 842 0
 1686 0066 BD46     		mov	sp, r7
 1687 0068 02B0     		add	sp, sp, #8
 1688              		@ sp needed
 1689 006a 80BD     		pop	{r7, pc}
 1690              	.L87:
 1691              		.align	2
 1692              	.L86:
 1693 006c 00000000 		.word	StripLights_DimMask
 1694 0070 7F7F7F00 		.word	8355711
 1695 0074 00000000 		.word	StripLights_DimShift
 1696 0078 3F3F3F00 		.word	4144959
 1697 007c 1F1F1F00 		.word	2039583
 1698 0080 0F0F0F00 		.word	986895
 1699 0084 FFFFFF00 		.word	16777215
 1700              		.cfi_endproc
 1701              	.LFE48:
 1702              		.size	StripLights_Dim, .-StripLights_Dim
 1703              		.section	.text.StripLights_bplot,"ax",%progbits
 1704              		.align	2
 1705              		.global	StripLights_bplot
 1706              		.code	16
 1707              		.thumb_func
 1708              		.type	StripLights_bplot, %function
 1709              	StripLights_bplot:
 1710              	.LFB49:
 843:.\Generated_Source\PSoC4/StripLights.c **** 
 844:.\Generated_Source\PSoC4/StripLights.c **** void StripLights_bplot( int32 x, int32 y, uint8 * bitMap, int32 update)
 845:.\Generated_Source\PSoC4/StripLights.c **** {
 1711              		.loc 1 845 0
 1712              		.cfi_startproc
ARM GAS  C:\Users\vangelis\AppData\Local\Temp\ccJoPsBk.s 			page 46


 1713 0000 90B5     		push	{r4, r7, lr}
 1714              		.cfi_def_cfa_offset 12
 1715              		.cfi_offset 4, -12
 1716              		.cfi_offset 7, -8
 1717              		.cfi_offset 14, -4
 1718 0002 8BB0     		sub	sp, sp, #44
 1719              		.cfi_def_cfa_offset 56
 1720 0004 00AF     		add	r7, sp, #0
 1721              		.cfi_def_cfa_register 7
 1722 0006 F860     		str	r0, [r7, #12]
 1723 0008 B960     		str	r1, [r7, #8]
 1724 000a 7A60     		str	r2, [r7, #4]
 1725 000c 3B60     		str	r3, [r7]
 846:.\Generated_Source\PSoC4/StripLights.c ****     int32 dx, dy;
 847:.\Generated_Source\PSoC4/StripLights.c ****     int32 aindex = 0;
 1726              		.loc 1 847 0
 1727 000e 0023     		mov	r3, #0
 1728 0010 FB61     		str	r3, [r7, #28]
 848:.\Generated_Source\PSoC4/StripLights.c ****     int32 maxX, maxY;
 849:.\Generated_Source\PSoC4/StripLights.c **** 
 850:.\Generated_Source\PSoC4/StripLights.c ****     maxX = x + (int32)bitMap[aindex++];
 1729              		.loc 1 850 0
 1730 0012 FB69     		ldr	r3, [r7, #28]
 1731 0014 5A1C     		add	r2, r3, #1
 1732 0016 FA61     		str	r2, [r7, #28]
 1733 0018 1A1C     		mov	r2, r3
 1734 001a 7B68     		ldr	r3, [r7, #4]
 1735 001c 9B18     		add	r3, r3, r2
 1736 001e 1B78     		ldrb	r3, [r3]
 1737 0020 1A1C     		mov	r2, r3
 1738 0022 FB68     		ldr	r3, [r7, #12]
 1739 0024 D318     		add	r3, r2, r3
 1740 0026 BB61     		str	r3, [r7, #24]
 851:.\Generated_Source\PSoC4/StripLights.c ****     maxY = y  + (int32)bitMap[aindex++];
 1741              		.loc 1 851 0
 1742 0028 FB69     		ldr	r3, [r7, #28]
 1743 002a 5A1C     		add	r2, r3, #1
 1744 002c FA61     		str	r2, [r7, #28]
 1745 002e 1A1C     		mov	r2, r3
 1746 0030 7B68     		ldr	r3, [r7, #4]
 1747 0032 9B18     		add	r3, r3, r2
 1748 0034 1B78     		ldrb	r3, [r3]
 1749 0036 1A1C     		mov	r2, r3
 1750 0038 BB68     		ldr	r3, [r7, #8]
 1751 003a D318     		add	r3, r2, r3
 1752 003c 7B61     		str	r3, [r7, #20]
 852:.\Generated_Source\PSoC4/StripLights.c **** 
 853:.\Generated_Source\PSoC4/StripLights.c **** 	for(dy = y; dy < maxY; dy++)
 1753              		.loc 1 853 0
 1754 003e BB68     		ldr	r3, [r7, #8]
 1755 0040 3B62     		str	r3, [r7, #32]
 1756 0042 1BE0     		b	.L89
 1757              	.L92:
 854:.\Generated_Source\PSoC4/StripLights.c ****     {
 855:.\Generated_Source\PSoC4/StripLights.c **** 		for(dx = x; dx < maxX; dx++)
 1758              		.loc 1 855 0
 1759 0044 FB68     		ldr	r3, [r7, #12]
ARM GAS  C:\Users\vangelis\AppData\Local\Temp\ccJoPsBk.s 			page 47


 1760 0046 7B62     		str	r3, [r7, #36]
 1761 0048 11E0     		b	.L90
 1762              	.L91:
 856:.\Generated_Source\PSoC4/StripLights.c ****         {
 857:.\Generated_Source\PSoC4/StripLights.c ****             StripLights_Pixel(dx, dy, bitMap[aindex++]);
 1763              		.loc 1 857 0 discriminator 3
 1764 004a FB69     		ldr	r3, [r7, #28]
 1765 004c 5A1C     		add	r2, r3, #1
 1766 004e FA61     		str	r2, [r7, #28]
 1767 0050 1A1C     		mov	r2, r3
 1768 0052 7B68     		ldr	r3, [r7, #4]
 1769 0054 9B18     		add	r3, r3, r2
 1770 0056 1B78     		ldrb	r3, [r3]
 1771 0058 1C1C     		mov	r4, r3
 1772 005a 7A6A     		ldr	r2, [r7, #36]
 1773 005c 3B6A     		ldr	r3, [r7, #32]
 1774 005e 101C     		mov	r0, r2
 1775 0060 191C     		mov	r1, r3
 1776 0062 221C     		mov	r2, r4
 1777 0064 FFF7FEFF 		bl	StripLights_Pixel
 855:.\Generated_Source\PSoC4/StripLights.c ****         {
 1778              		.loc 1 855 0 discriminator 3
 1779 0068 7B6A     		ldr	r3, [r7, #36]
 1780 006a 0133     		add	r3, r3, #1
 1781 006c 7B62     		str	r3, [r7, #36]
 1782              	.L90:
 855:.\Generated_Source\PSoC4/StripLights.c ****         {
 1783              		.loc 1 855 0 is_stmt 0 discriminator 1
 1784 006e 7A6A     		ldr	r2, [r7, #36]
 1785 0070 BB69     		ldr	r3, [r7, #24]
 1786 0072 9A42     		cmp	r2, r3
 1787 0074 E9DB     		blt	.L91
 853:.\Generated_Source\PSoC4/StripLights.c ****     {
 1788              		.loc 1 853 0 is_stmt 1 discriminator 2
 1789 0076 3B6A     		ldr	r3, [r7, #32]
 1790 0078 0133     		add	r3, r3, #1
 1791 007a 3B62     		str	r3, [r7, #32]
 1792              	.L89:
 853:.\Generated_Source\PSoC4/StripLights.c ****     {
 1793              		.loc 1 853 0 is_stmt 0 discriminator 1
 1794 007c 3A6A     		ldr	r2, [r7, #32]
 1795 007e 7B69     		ldr	r3, [r7, #20]
 1796 0080 9A42     		cmp	r2, r3
 1797 0082 DFDB     		blt	.L92
 858:.\Generated_Source\PSoC4/StripLights.c ****         }
 859:.\Generated_Source\PSoC4/StripLights.c ****     }
 860:.\Generated_Source\PSoC4/StripLights.c **** 	if(update) StripLights_Trigger(1);
 1798              		.loc 1 860 0 is_stmt 1
 1799 0084 3B68     		ldr	r3, [r7]
 1800 0086 002B     		cmp	r3, #0
 1801 0088 02D0     		beq	.L88
 1802              		.loc 1 860 0 is_stmt 0 discriminator 1
 1803 008a 0120     		mov	r0, #1
 1804 008c FFF7FEFF 		bl	StripLights_Trigger
 1805              	.L88:
 861:.\Generated_Source\PSoC4/StripLights.c **** }
 1806              		.loc 1 861 0 is_stmt 1
ARM GAS  C:\Users\vangelis\AppData\Local\Temp\ccJoPsBk.s 			page 48


 1807 0090 BD46     		mov	sp, r7
 1808 0092 0BB0     		add	sp, sp, #44
 1809              		@ sp needed
 1810 0094 90BD     		pop	{r4, r7, pc}
 1811              		.cfi_endproc
 1812              	.LFE49:
 1813              		.size	StripLights_bplot, .-StripLights_bplot
 1814 0096 C046     		.bss
 1815              		.align	2
 1816              	colorIndex.5752:
 1817 000c 00000000 		.space	4
 1818              		.align	2
 1819              	color.5759:
 1820 0010 00000000 		.space	4
 1821              		.align	2
 1822              	color.5767:
 1823 0014 00000000 		.space	4
 1824              		.text
 1825              	.Letext0:
 1826              		.file 2 "Generated_Source\\PSoC4/cytypes.h"