ARM GAS  C:\Users\vangelis\AppData\Local\Temp\ccfU6CGL.s 			page 1


   1              		.cpu cortex-m0
   2              		.fpu softvfp
   3              		.eabi_attribute 20, 1
   4              		.eabi_attribute 21, 1
   5              		.eabi_attribute 23, 3
   6              		.eabi_attribute 24, 1
   7              		.eabi_attribute 25, 1
   8              		.eabi_attribute 26, 1
   9              		.eabi_attribute 30, 4
  10              		.eabi_attribute 34, 0
  11              		.eabi_attribute 18, 4
  12              		.code	16
  13              		.file	"UART_Btldr.c"
  14              		.text
  15              	.Ltext0:
  16              		.cfi_sections	.debug_frame
  17              		.section	.text.CyBtldrCommStart,"ax",%progbits
  18              		.align	1
  19              		.global	CyBtldrCommStart
  20              		.code	16
  21              		.thumb_func
  22              		.type	CyBtldrCommStart, %function
  23              	CyBtldrCommStart:
  24              	.LFB33:
  25              		.file 1 ".\\UART_Btldr.c"
   1:.\UART_Btldr.c **** /******************************************************************************
   2:.\UART_Btldr.c **** * Project Name		: UART_Bootloader
   3:.\UART_Btldr.c **** * File Name			: UART_Btldr.c
   4:.\UART_Btldr.c **** * Version 			: 1.0
   5:.\UART_Btldr.c **** * Device Used		: CY8C4245AXI-483
   6:.\UART_Btldr.c **** * Software Used		: PSoC Creator 3.1
   7:.\UART_Btldr.c **** * Compiler    		: ARMGCC 4.8.4, ARM RVDS Generic, ARM MDK Generic
   8:.\UART_Btldr.c **** * Related Hardware	: CY8CKIT-049-42xx PSoC 4 Prototyping Kit 
   9:.\UART_Btldr.c **** *
  10:.\UART_Btldr.c **** ********************************************************************************
  11:.\UART_Btldr.c **** * Copyright (2015), Cypress Semiconductor Corporation. All Rights Reserved.
  12:.\UART_Btldr.c **** ********************************************************************************
  13:.\UART_Btldr.c **** * This software is owned by Cypress Semiconductor Corporation (Cypress)
  14:.\UART_Btldr.c **** * and is protected by and subject to worldwide patent protection (United
  15:.\UART_Btldr.c **** * States and foreign), United States copyright laws and international treaty
  16:.\UART_Btldr.c **** * provisions. Cypress hereby grants to licensee a personal, non-exclusive,
  17:.\UART_Btldr.c **** * non-transferable license to copy, use, modify, create derivative works of,
  18:.\UART_Btldr.c **** * and compile the Cypress Source Code and derivative works for the sole
  19:.\UART_Btldr.c **** * purpose of creating custom software in support of licensee product to be
  20:.\UART_Btldr.c **** * used only in conjunction with a Cypress integrated circuit as specified in
  21:.\UART_Btldr.c **** * the applicable agreement. Any reproduction, modification, translation,
  22:.\UART_Btldr.c **** * compilation, or representation of this software except as specified above 
  23:.\UART_Btldr.c **** * is prohibited without the express written permission of Cypress.
  24:.\UART_Btldr.c **** *
  25:.\UART_Btldr.c **** * Disclaimer: CYPRESS MAKES NO WARRANTY OF ANY KIND, EXPRESS OR IMPLIED, WITH 
  26:.\UART_Btldr.c **** * REGARD TO THIS MATERIAL, INCLUDING, BUT NOT LIMITED TO, THE IMPLIED 
  27:.\UART_Btldr.c **** * WARRANTIES OF MERCHANTABILITY AND FITNESS FOR A PARTICULAR PURPOSE.
  28:.\UART_Btldr.c **** * Cypress reserves the right to make changes without further notice to the 
  29:.\UART_Btldr.c **** * materials described herein. Cypress does not assume any liability arising out 
  30:.\UART_Btldr.c **** * of the application or use of any product or circuit described herein. Cypress 
  31:.\UART_Btldr.c **** * does not authorize its products for use as critical components in life-support 
  32:.\UART_Btldr.c **** * systems where a malfunction or failure may reasonably be expected to result in 
ARM GAS  C:\Users\vangelis\AppData\Local\Temp\ccfU6CGL.s 			page 2


  33:.\UART_Btldr.c **** * significant injury to the user. The inclusion of Cypress' product in a life-
  34:.\UART_Btldr.c **** * support systems application implies that the manufacturer assumes all risk of 
  35:.\UART_Btldr.c **** * such use and in doing so indemnifies Cypress against all charges. 
  36:.\UART_Btldr.c **** *
  37:.\UART_Btldr.c **** * Use of this Software may be limited by and subject to the applicable Cypress
  38:.\UART_Btldr.c **** * software license agreement. 
  39:.\UART_Btldr.c **** *******************************************************************************/
  40:.\UART_Btldr.c **** /*******************************************************************************
  41:.\UART_Btldr.c **** * Description:
  42:.\UART_Btldr.c **** * This file contains the bootloader communication functions implemented using 
  43:.\UART_Btldr.c **** * UART. Some portion of this code depends on the code placed in UART receive 
  44:.\UART_Btldr.c **** * interrupt routine in main.c file.
  45:.\UART_Btldr.c **** ********************************************************************************/
  46:.\UART_Btldr.c **** 
  47:.\UART_Btldr.c **** #include "UART.h" 
  48:.\UART_Btldr.c **** #include "project.h"
  49:.\UART_Btldr.c **** 
  50:.\UART_Btldr.c **** /* Byte to Byte time out in ms for detecting end of block data from host*/
  51:.\UART_Btldr.c **** #define BYTE2BYTE_TIME_OUT 2
  52:.\UART_Btldr.c **** 
  53:.\UART_Btldr.c **** #define BTLDR_SIZEOF_READ_BUFFER 0xff
  54:.\UART_Btldr.c **** #define BTLDR_SIZEOF_WRITE_BUFFER 0xff
  55:.\UART_Btldr.c **** #define END_OF_PACKET 0x17
  56:.\UART_Btldr.c **** 
  57:.\UART_Btldr.c **** /***************************************
  58:.\UART_Btldr.c **** *Global variables
  59:.\UART_Btldr.c **** ***************************************/
  60:.\UART_Btldr.c **** 
  61:.\UART_Btldr.c **** /* UART receive data count variable  */
  62:.\UART_Btldr.c **** volatile uint16 receivedDataCount=0;
  63:.\UART_Btldr.c **** 
  64:.\UART_Btldr.c **** /*******************************************************************************
  65:.\UART_Btldr.c **** * Function Name: CyBtldrCommStart
  66:.\UART_Btldr.c **** ********************************************************************************
  67:.\UART_Btldr.c **** *
  68:.\UART_Btldr.c **** * Summary:
  69:.\UART_Btldr.c **** *  Starts the UART communication component 
  70:.\UART_Btldr.c **** *
  71:.\UART_Btldr.c **** * Parameters:  
  72:.\UART_Btldr.c **** *  void
  73:.\UART_Btldr.c **** *
  74:.\UART_Btldr.c **** * Return: 
  75:.\UART_Btldr.c **** *  void 
  76:.\UART_Btldr.c **** *
  77:.\UART_Btldr.c **** * Side Effects:
  78:.\UART_Btldr.c **** *   None  
  79:.\UART_Btldr.c **** *
  80:.\UART_Btldr.c **** *******************************************************************************/
  81:.\UART_Btldr.c **** void CyBtldrCommStart(void)
  82:.\UART_Btldr.c **** {        
  26              		.loc 1 82 0
  27              		.cfi_startproc
  28 0000 08B5     		push	{r3, lr}
  29              		.cfi_def_cfa_offset 8
  30              		.cfi_offset 3, -8
  31              		.cfi_offset 14, -4
  83:.\UART_Btldr.c **** 	/* Start UART component and clear the TX,RX buffers */
ARM GAS  C:\Users\vangelis\AppData\Local\Temp\ccfU6CGL.s 			page 3


  84:.\UART_Btldr.c **** 	UART_Start();
  32              		.loc 1 84 0
  33 0002 FFF7FEFF 		bl	UART_Start
  34              	.LVL0:
  85:.\UART_Btldr.c **** 	UART_SpiUartClearRxBuffer();
  86:.\UART_Btldr.c **** 	UART_SpiUartClearTxBuffer();
  87:.\UART_Btldr.c **** }
  35              		.loc 1 87 0
  36              		@ sp needed
  85:.\UART_Btldr.c **** 	UART_SpiUartClearRxBuffer();
  37              		.loc 1 85 0
  38 0006 FFF7FEFF 		bl	UART_SpiUartClearRxBuffer
  39              	.LVL1:
  86:.\UART_Btldr.c **** }
  40              		.loc 1 86 0
  41 000a FFF7FEFF 		bl	UART_SpiUartClearTxBuffer
  42              	.LVL2:
  43              		.loc 1 87 0
  44 000e 08BD     		pop	{r3, pc}
  45              		.cfi_endproc
  46              	.LFE33:
  47              		.size	CyBtldrCommStart, .-CyBtldrCommStart
  48              		.section	.text.CyBtldrCommStop,"ax",%progbits
  49              		.align	1
  50              		.global	CyBtldrCommStop
  51              		.code	16
  52              		.thumb_func
  53              		.type	CyBtldrCommStop, %function
  54              	CyBtldrCommStop:
  55              	.LFB34:
  88:.\UART_Btldr.c **** 
  89:.\UART_Btldr.c **** /*******************************************************************************
  90:.\UART_Btldr.c **** * Function Name: CyBtldrCommStop
  91:.\UART_Btldr.c **** ********************************************************************************
  92:.\UART_Btldr.c **** *
  93:.\UART_Btldr.c **** * Summary:
  94:.\UART_Btldr.c **** *  Disable the component.
  95:.\UART_Btldr.c **** *
  96:.\UART_Btldr.c **** * Parameters:  
  97:.\UART_Btldr.c **** *  void 
  98:.\UART_Btldr.c **** *
  99:.\UART_Btldr.c **** * Return: 
 100:.\UART_Btldr.c **** *  void 
 101:.\UART_Btldr.c **** *
 102:.\UART_Btldr.c **** *******************************************************************************/
 103:.\UART_Btldr.c **** void CyBtldrCommStop(void) 
 104:.\UART_Btldr.c **** {
  56              		.loc 1 104 0
  57              		.cfi_startproc
  58 0000 08B5     		push	{r3, lr}
  59              		.cfi_def_cfa_offset 8
  60              		.cfi_offset 3, -8
  61              		.cfi_offset 14, -4
 105:.\UART_Btldr.c ****     /* Stop UART */
 106:.\UART_Btldr.c ****     UART_Stop();
  62              		.loc 1 106 0
  63 0002 FFF7FEFF 		bl	UART_Stop
ARM GAS  C:\Users\vangelis\AppData\Local\Temp\ccfU6CGL.s 			page 4


  64              	.LVL3:
 107:.\UART_Btldr.c **** }
  65              		.loc 1 107 0
  66              		@ sp needed
  67 0006 08BD     		pop	{r3, pc}
  68              		.cfi_endproc
  69              	.LFE34:
  70              		.size	CyBtldrCommStop, .-CyBtldrCommStop
  71              		.section	.text.CyBtldrCommReset,"ax",%progbits
  72              		.align	1
  73              		.global	CyBtldrCommReset
  74              		.code	16
  75              		.thumb_func
  76              		.type	CyBtldrCommReset, %function
  77              	CyBtldrCommReset:
  78              	.LFB35:
 108:.\UART_Btldr.c **** 
 109:.\UART_Btldr.c **** /*******************************************************************************
 110:.\UART_Btldr.c **** * Function Name: CyBtldrCommReset
 111:.\UART_Btldr.c **** ********************************************************************************
 112:.\UART_Btldr.c **** *
 113:.\UART_Btldr.c **** * Summary:
 114:.\UART_Btldr.c **** *  Resets the receive and transmit communication Buffers.
 115:.\UART_Btldr.c **** *
 116:.\UART_Btldr.c **** * Parameters:  
 117:.\UART_Btldr.c **** *  void 
 118:.\UART_Btldr.c **** *
 119:.\UART_Btldr.c **** * Return: 
 120:.\UART_Btldr.c **** *  void 
 121:.\UART_Btldr.c **** *
 122:.\UART_Btldr.c **** * Side Effects:
 123:.\UART_Btldr.c **** *  
 124:.\UART_Btldr.c **** *******************************************************************************/
 125:.\UART_Btldr.c **** void CyBtldrCommReset(void)
 126:.\UART_Btldr.c **** {
  79              		.loc 1 126 0
  80              		.cfi_startproc
  81 0000 08B5     		push	{r3, lr}
  82              		.cfi_def_cfa_offset 8
  83              		.cfi_offset 3, -8
  84              		.cfi_offset 14, -4
 127:.\UART_Btldr.c ****     /* Clear RX and TX buffers */
 128:.\UART_Btldr.c ****     UART_SpiUartClearRxBuffer();
  85              		.loc 1 128 0
  86 0002 FFF7FEFF 		bl	UART_SpiUartClearRxBuffer
  87              	.LVL4:
 129:.\UART_Btldr.c ****     UART_SpiUartClearTxBuffer();
 130:.\UART_Btldr.c **** }
  88              		.loc 1 130 0
  89              		@ sp needed
 129:.\UART_Btldr.c ****     UART_SpiUartClearTxBuffer();
  90              		.loc 1 129 0
  91 0006 FFF7FEFF 		bl	UART_SpiUartClearTxBuffer
  92              	.LVL5:
  93              		.loc 1 130 0
  94 000a 08BD     		pop	{r3, pc}
  95              		.cfi_endproc
ARM GAS  C:\Users\vangelis\AppData\Local\Temp\ccfU6CGL.s 			page 5


  96              	.LFE35:
  97              		.size	CyBtldrCommReset, .-CyBtldrCommReset
  98              		.section	.text.CyBtldrCommWrite,"ax",%progbits
  99              		.align	1
 100              		.global	CyBtldrCommWrite
 101              		.code	16
 102              		.thumb_func
 103              		.type	CyBtldrCommWrite, %function
 104              	CyBtldrCommWrite:
 105              	.LFB36:
 131:.\UART_Btldr.c **** 
 132:.\UART_Btldr.c **** /*******************************************************************************
 133:.\UART_Btldr.c **** * Function Name: CyBtldrCommWrite
 134:.\UART_Btldr.c **** ********************************************************************************
 135:.\UART_Btldr.c **** *
 136:.\UART_Btldr.c **** * Summary:
 137:.\UART_Btldr.c **** *  Allows the caller to write data to the bootloader host. This function uses 
 138:.\UART_Btldr.c **** * a block write function for writing data using UART communication component. 
 139:.\UART_Btldr.c **** *
 140:.\UART_Btldr.c **** * Parameters:
 141:.\UART_Btldr.c **** *  pData:    A pointer to the block of data to send to the device
 142:.\UART_Btldr.c **** *  size:     The number of bytes to write.
 143:.\UART_Btldr.c **** *  count:    Pointer to an unsigned short variable to write the number of
 144:.\UART_Btldr.c **** *             bytes actually written.
 145:.\UART_Btldr.c **** *  timeOut:  Number of units to wait before returning because of a timeout.
 146:.\UART_Btldr.c **** *
 147:.\UART_Btldr.c **** * Return: 
 148:.\UART_Btldr.c **** *   cystatus: This function will return CYRET_SUCCESS if data is sent successfully.
 149:.\UART_Btldr.c **** *
 150:.\UART_Btldr.c **** * Side Effects:
 151:.\UART_Btldr.c **** *  This function should be called after command was received .
 152:.\UART_Btldr.c **** *
 153:.\UART_Btldr.c **** *******************************************************************************/
 154:.\UART_Btldr.c **** cystatus CyBtldrCommWrite(uint8 * pData, uint16 Size, uint16 * Count, uint8 TimeOut)
 155:.\UART_Btldr.c **** {
 106              		.loc 1 155 0
 107              		.cfi_startproc
 108              	.LVL6:
 109 0000 70B5     		push	{r4, r5, r6, lr}
 110              		.cfi_def_cfa_offset 16
 111              		.cfi_offset 4, -16
 112              		.cfi_offset 5, -12
 113              		.cfi_offset 6, -8
 114              		.cfi_offset 14, -4
 115              		.loc 1 155 0
 116 0002 0D1C     		mov	r5, r1
 117 0004 161C     		mov	r6, r2
 156:.\UART_Btldr.c ****     cystatus status = CYRET_EMPTY;
 157:.\UART_Btldr.c **** 	
 158:.\UART_Btldr.c ****     uint8 timeOutms = TimeOut; /* This timeout is not used in this function, defined to avoid compi
 159:.\UART_Btldr.c **** 	timeOutms += 10;
 160:.\UART_Btldr.c **** 	
 161:.\UART_Btldr.c ****    	receivedDataCount=0;
 118              		.loc 1 161 0
 119 0006 0024     		mov	r4, #0
 120 0008 034B     		ldr	r3, .L5
 121              	.LVL7:
ARM GAS  C:\Users\vangelis\AppData\Local\Temp\ccfU6CGL.s 			page 6


 162:.\UART_Btldr.c ****     
 163:.\UART_Btldr.c **** 	/* Write TX data using blocking function */
 164:.\UART_Btldr.c **** 	UART_SpiUartPutArray(pData, (uint8)Size);
 122              		.loc 1 164 0
 123 000a C9B2     		uxtb	r1, r1
 124              	.LVL8:
 161:.\UART_Btldr.c ****     
 125              		.loc 1 161 0
 126 000c 1C80     		strh	r4, [r3]
 165:.\UART_Btldr.c **** 	
 166:.\UART_Btldr.c **** 	/* Return success code */
 167:.\UART_Btldr.c **** 	*Count = Size;
 168:.\UART_Btldr.c **** 	status = CYRET_SUCCESS;
 169:.\UART_Btldr.c **** 	
 170:.\UART_Btldr.c ****     return status;
 171:.\UART_Btldr.c **** }
 127              		.loc 1 171 0
 128              		@ sp needed
 164:.\UART_Btldr.c **** 	
 129              		.loc 1 164 0
 130 000e FFF7FEFF 		bl	UART_SpiUartPutArray
 131              	.LVL9:
 167:.\UART_Btldr.c **** 	status = CYRET_SUCCESS;
 132              		.loc 1 167 0
 133 0012 3580     		strh	r5, [r6]
 134              	.LVL10:
 135              		.loc 1 171 0
 136 0014 201C     		mov	r0, r4
 137              	.LVL11:
 138 0016 70BD     		pop	{r4, r5, r6, pc}
 139              	.L6:
 140              		.align	2
 141              	.L5:
 142 0018 00000000 		.word	.LANCHOR0
 143              		.cfi_endproc
 144              	.LFE36:
 145              		.size	CyBtldrCommWrite, .-CyBtldrCommWrite
 146              		.section	.text.CyBtldrCommRead,"ax",%progbits
 147              		.align	1
 148              		.global	CyBtldrCommRead
 149              		.code	16
 150              		.thumb_func
 151              		.type	CyBtldrCommRead, %function
 152              	CyBtldrCommRead:
 153              	.LFB37:
 172:.\UART_Btldr.c **** 
 173:.\UART_Btldr.c **** /*******************************************************************************
 174:.\UART_Btldr.c **** * Function Name: CyBtldrCommRead
 175:.\UART_Btldr.c **** ********************************************************************************
 176:.\UART_Btldr.c **** *
 177:.\UART_Btldr.c **** * Summary:
 178:.\UART_Btldr.c **** *  Receives the command. 
 179:.\UART_Btldr.c **** *
 180:.\UART_Btldr.c **** * Parameters:  
 181:.\UART_Btldr.c **** *  pData:    A pointer to the area to store the block of data received
 182:.\UART_Btldr.c **** *             from the device.
 183:.\UART_Btldr.c **** *  size:     Maximum size of the read buffer
ARM GAS  C:\Users\vangelis\AppData\Local\Temp\ccfU6CGL.s 			page 7


 184:.\UART_Btldr.c **** *  count:    Pointer to an unsigned short variable to write the number
 185:.\UART_Btldr.c **** *             of bytes actually read.
 186:.\UART_Btldr.c **** *  timeOut:  Number of units to wait before returning because of a timeOut.
 187:.\UART_Btldr.c **** *            Timeout is measured in 10s of ms.
 188:.\UART_Btldr.c **** *
 189:.\UART_Btldr.c **** * Return: 
 190:.\UART_Btldr.c **** *  cystatus: This function will return CYRET_SUCCESS if at least one byte is received
 191:.\UART_Btldr.c **** *			 successfully within the timeout interval. If no data is received this 
 192:.\UART_Btldr.c **** *			 function will return CYRET_EMPTY.
 193:.\UART_Btldr.c **** *
 194:.\UART_Btldr.c **** * Theory: 
 195:.\UART_Btldr.c **** *  'receivedDataCount' is updated with number of bytes received in the UART RX 
 196:.\UART_Btldr.c **** *  interrupt routine. This variable is used to check whether some data is received 
 197:.\UART_Btldr.c **** *  within the timeout period specified in *.cydwr. If data is received before the timeout, 
 198:.\UART_Btldr.c **** *  the control will remain in another loop waiting for more data until no data is 
 199:.\UART_Btldr.c **** *  received for a BYTE2BYTE_TIME_OUT(2 ms) interval.
 200:.\UART_Btldr.c **** *
 201:.\UART_Btldr.c **** *  Note: Increase the BYTE2BYTE_TIME_OUT to 10 ms for baud rates less than 9600.  
 202:.\UART_Btldr.c **** * 
 203:.\UART_Btldr.c **** *  BYTE2BYTE_TIME_OUT is used for detecting timeout marking end of block data from host. 
 204:.\UART_Btldr.c **** *  This has to be set to a value which is greater than the expected maximum delay 
 205:.\UART_Btldr.c **** *  between two bytes during a block/packet transmission from the host. 
 206:.\UART_Btldr.c **** *  You have to account for the delay in hardware converters while calculating this value,
 207:.\UART_Btldr.c **** *  if you are using any USB-UART bridges.   
 208:.\UART_Btldr.c **** *******************************************************************************/
 209:.\UART_Btldr.c **** cystatus CyBtldrCommRead(uint8 * pData, uint16 Size, uint16 * Count, uint8 TimeOut)
 210:.\UART_Btldr.c **** {
 154              		.loc 1 210 0
 155              		.cfi_startproc
 156              	.LVL12:
 157 0000 F0B5     		push	{r4, r5, r6, r7, lr}
 158              		.cfi_def_cfa_offset 20
 159              		.cfi_offset 4, -20
 160              		.cfi_offset 5, -16
 161              		.cfi_offset 6, -12
 162              		.cfi_offset 7, -8
 163              		.cfi_offset 14, -4
 211:.\UART_Btldr.c ****     uint16 cntr,dataIndexCntr;
 212:.\UART_Btldr.c ****     uint16 tempCount,oldDataCount;
 213:.\UART_Btldr.c **** 	
 214:.\UART_Btldr.c ****     cystatus status = CYRET_EMPTY;
 215:.\UART_Btldr.c **** 
 216:.\UART_Btldr.c ****     /* Check whether data is received within the timeout period. 
 217:.\UART_Btldr.c **** 	*  Timeout period is in units of 10ms.
 218:.\UART_Btldr.c **** 	*  If at least one byte is received within the timeout interval, wait for more data */
 219:.\UART_Btldr.c **** 	for (cntr = 0; cntr < TimeOut*10; cntr++)
 164              		.loc 1 219 0
 165 0002 0A26     		mov	r6, #10
 210:.\UART_Btldr.c ****     uint16 cntr,dataIndexCntr;
 166              		.loc 1 210 0
 167 0004 171C     		mov	r7, r2
 168              		.loc 1 219 0
 169 0006 0024     		mov	r4, #0
 170 0008 5E43     		mul	r6, r3
 210:.\UART_Btldr.c ****     uint16 cntr,dataIndexCntr;
 171              		.loc 1 210 0
 172 000a 87B0     		sub	sp, sp, #28
ARM GAS  C:\Users\vangelis\AppData\Local\Temp\ccfU6CGL.s 			page 8


 173              		.cfi_def_cfa_offset 48
 210:.\UART_Btldr.c ****     uint16 cntr,dataIndexCntr;
 174              		.loc 1 210 0
 175 000c 0390     		str	r0, [sp, #12]
 176 000e 0591     		str	r1, [sp, #20]
 177              	.LVL13:
 178              	.L8:
 179 0010 2D4D     		ldr	r5, .L27
 180              		.loc 1 219 0 discriminator 1
 181 0012 B442     		cmp	r4, r6
 182 0014 1ADA     		bge	.L25
 220:.\UART_Btldr.c ****     {
 221:.\UART_Btldr.c **** 	    receivedDataCount = UART_SpiUartGetRxBufferSize();
 183              		.loc 1 221 0
 184 0016 FFF7FEFF 		bl	UART_SpiUartGetRxBufferSize
 185              	.LVL14:
 186 001a 80B2     		uxth	r0, r0
 187 001c 2880     		strh	r0, [r5]
 222:.\UART_Btldr.c **** 		
 223:.\UART_Btldr.c **** 		/* If at least one byte is received within the timeout interval enter the next loop
 224:.\UART_Btldr.c **** 		* waiting for more data reception */
 225:.\UART_Btldr.c **** 		if(receivedDataCount!=0) 
 188              		.loc 1 225 0
 189 001e 2B88     		ldrh	r3, [r5]
 190 0020 002B     		cmp	r3, #0
 191 0022 0DD0     		beq	.L9
 192              	.LVL15:
 193              	.L10:
 226:.\UART_Btldr.c **** 	   	{
 227:.\UART_Btldr.c **** 			/* Wait for more data until 2 ms byte to byte time out interval receivedDataCount 
 228:.\UART_Btldr.c **** 			* variable is updated in on each data reception. If no data is received during the 
 229:.\UART_Btldr.c **** 			* last 2 ms (BYTE2BYTE_TIME_OUT) then it is considered as end of transmitted data 
 230:.\UART_Btldr.c **** 			* block (packet) from the host and the program execution will break from the data 
 231:.\UART_Btldr.c **** 			* awaiting loop with status=CYRET_SUCCESS */
 232:.\UART_Btldr.c **** 			do{
 233:.\UART_Btldr.c **** 			   	oldDataCount = receivedDataCount;
 234:.\UART_Btldr.c **** 				CyDelay(BYTE2BYTE_TIME_OUT);
 194              		.loc 1 234 0 discriminator 1
 195 0024 0220     		mov	r0, #2
 233:.\UART_Btldr.c **** 				CyDelay(BYTE2BYTE_TIME_OUT);
 196              		.loc 1 233 0 discriminator 1
 197 0026 2C88     		ldrh	r4, [r5]
 198              		.loc 1 234 0 discriminator 1
 199 0028 FFF7FEFF 		bl	CyDelay
 200              	.LVL16:
 235:.\UART_Btldr.c **** 				receivedDataCount = UART_SpiUartGetRxBufferSize();			    
 201              		.loc 1 235 0 discriminator 1
 202 002c FFF7FEFF 		bl	UART_SpiUartGetRxBufferSize
 203              	.LVL17:
 204 0030 80B2     		uxth	r0, r0
 205 0032 2880     		strh	r0, [r5]
 236:.\UART_Btldr.c **** 			}while(receivedDataCount > oldDataCount);
 206              		.loc 1 236 0 discriminator 1
 207 0034 2B88     		ldrh	r3, [r5]
 233:.\UART_Btldr.c **** 				CyDelay(BYTE2BYTE_TIME_OUT);
 208              		.loc 1 233 0 discriminator 1
 209 0036 A4B2     		uxth	r4, r4
ARM GAS  C:\Users\vangelis\AppData\Local\Temp\ccfU6CGL.s 			page 9


 210              	.LVL18:
 211              		.loc 1 236 0 discriminator 1
 212 0038 A342     		cmp	r3, r4
 213 003a F3D8     		bhi	.L10
 237:.\UART_Btldr.c **** 			status = CYRET_SUCCESS;	
 214              		.loc 1 237 0
 215 003c 0023     		mov	r3, #0
 216 003e 06E0     		b	.L23
 217              	.LVL19:
 218              	.L9:
 238:.\UART_Btldr.c **** 			break;
 239:.\UART_Btldr.c **** 		}
 240:.\UART_Btldr.c **** 		/* If no data is received, give a delay of 1ms and check again until the Timeout specified in .cy
 241:.\UART_Btldr.c **** 		else 
 242:.\UART_Btldr.c **** 		{
 243:.\UART_Btldr.c **** 			CyDelay(1);
 219              		.loc 1 243 0 discriminator 2
 220 0040 0120     		mov	r0, #1
 219:.\UART_Btldr.c ****     {
 221              		.loc 1 219 0 discriminator 2
 222 0042 0134     		add	r4, r4, #1
 223              	.LVL20:
 224              		.loc 1 243 0 discriminator 2
 225 0044 FFF7FEFF 		bl	CyDelay
 226              	.LVL21:
 219:.\UART_Btldr.c ****     {
 227              		.loc 1 219 0 discriminator 2
 228 0048 A4B2     		uxth	r4, r4
 229              	.LVL22:
 230 004a E1E7     		b	.L8
 231              	.L25:
 214:.\UART_Btldr.c **** 
 232              		.loc 1 214 0
 233 004c 0523     		mov	r3, #5
 234              	.LVL23:
 235              	.L23:
 244:.\UART_Btldr.c **** 		}
 245:.\UART_Btldr.c ****     }
 246:.\UART_Btldr.c **** 	
 247:.\UART_Btldr.c **** 	/* Initialize the data read indexes and Count value*/
 248:.\UART_Btldr.c **** 	*Count = 0;
 236              		.loc 1 248 0
 237 004e 0024     		mov	r4, #0
 214:.\UART_Btldr.c **** 
 238              		.loc 1 214 0
 239 0050 0193     		str	r3, [sp, #4]
 240              	.LVL24:
 241              		.loc 1 248 0
 242 0052 3C80     		strh	r4, [r7]
 243              	.LVL25:
 244              	.L13:
 249:.\UART_Btldr.c **** 	dataIndexCntr = 0;
 250:.\UART_Btldr.c **** 	
 251:.\UART_Btldr.c **** 	/* If receivedDataCount>0 , move the received data to the pData buffer */
 252:.\UART_Btldr.c **** 	while(receivedDataCount > 0)
 245              		.loc 1 252 0
 246 0054 2B88     		ldrh	r3, [r5]
ARM GAS  C:\Users\vangelis\AppData\Local\Temp\ccfU6CGL.s 			page 10


 247 0056 002B     		cmp	r3, #0
 248 0058 32D0     		beq	.L18
 253:.\UART_Btldr.c **** 	{
 254:.\UART_Btldr.c **** 		tempCount=receivedDataCount;
 249              		.loc 1 254 0
 250 005a 2E88     		ldrh	r6, [r5]
 255:.\UART_Btldr.c **** 		*Count  =(*Count ) + tempCount;
 251              		.loc 1 255 0
 252 005c 3B88     		ldrh	r3, [r7]
 254:.\UART_Btldr.c **** 		*Count  =(*Count ) + tempCount;
 253              		.loc 1 254 0
 254 005e B6B2     		uxth	r6, r6
 255              	.LVL26:
 256              		.loc 1 255 0
 257 0060 F318     		add	r3, r6, r3
 256:.\UART_Btldr.c **** 		
 257:.\UART_Btldr.c **** 		/* Check if buffer overflow will occur before moving the data */
 258:.\UART_Btldr.c **** 		if(*Count < Size)
 258              		.loc 1 258 0
 259 0062 059A     		ldr	r2, [sp, #20]
 255:.\UART_Btldr.c **** 		
 260              		.loc 1 255 0
 261 0064 9BB2     		uxth	r3, r3
 262 0066 3B80     		strh	r3, [r7]
 263              		.loc 1 258 0
 264 0068 9342     		cmp	r3, r2
 265 006a 20D2     		bcs	.L14
 266 006c A319     		add	r3, r4, r6
 267 006e 9BB2     		uxth	r3, r3
 268 0070 0293     		str	r3, [sp, #8]
 269              	.L15:
 270              	.LVL27:
 259:.\UART_Btldr.c **** 		{
 260:.\UART_Btldr.c **** 			for (cntr = 0;((cntr < tempCount) ); cntr++)
 271              		.loc 1 260 0 discriminator 1
 272 0072 029B     		ldr	r3, [sp, #8]
 273 0074 9C42     		cmp	r4, r3
 274 0076 09D0     		beq	.L26
 261:.\UART_Btldr.c **** 			{
 262:.\UART_Btldr.c **** 				/* Read the data and move it to the pData buffer */
 263:.\UART_Btldr.c **** 				pData[dataIndexCntr++] = UART_SpiUartReadRxData();   
 275              		.loc 1 263 0 discriminator 3
 276 0078 631C     		add	r3, r4, #1
 277 007a 9BB2     		uxth	r3, r3
 278 007c 0493     		str	r3, [sp, #16]
 279              	.LVL28:
 280 007e 039B     		ldr	r3, [sp, #12]
 281 0080 1C19     		add	r4, r3, r4
 282 0082 FFF7FEFF 		bl	UART_SpiUartReadRxData
 283              	.LVL29:
 284 0086 2070     		strb	r0, [r4]
 285              	.LVL30:
 286 0088 049C     		ldr	r4, [sp, #16]
 287 008a F2E7     		b	.L15
 288              	.LVL31:
 289              	.L26:
 264:.\UART_Btldr.c **** 			}
ARM GAS  C:\Users\vangelis\AppData\Local\Temp\ccfU6CGL.s 			page 11


 265:.\UART_Btldr.c **** 			/* Disable the interrupts before updating the receivedDataCount and 
 266:.\UART_Btldr.c **** 			*  re-enable the interrupts after updating */
 267:.\UART_Btldr.c **** 			CyGlobalIntDisable;
 290              		.loc 1 267 0
 291              	@ 267 ".\UART_Btldr.c" 1
 292 008c 72B6     		CPSID   i
 293              	@ 0 "" 2
 268:.\UART_Btldr.c **** 			
 269:.\UART_Btldr.c **** 			/* subtract the read data count from received data count */
 270:.\UART_Btldr.c **** 			receivedDataCount=receivedDataCount-tempCount;
 294              		.loc 1 270 0
 295              		.code	16
 296 008e 2B88     		ldrh	r3, [r5]
 297 0090 9E1B     		sub	r6, r3, r6
 298              	.LVL32:
 299 0092 B6B2     		uxth	r6, r6
 300 0094 2E80     		strh	r6, [r5]
 271:.\UART_Btldr.c **** 			
 272:.\UART_Btldr.c **** 			CyGlobalIntEnable;
 301              		.loc 1 272 0
 302              	@ 272 ".\UART_Btldr.c" 1
 303 0096 62B6     		CPSIE   i
 304              	@ 0 "" 2
 273:.\UART_Btldr.c **** 			
 274:.\UART_Btldr.c **** 			/* Check if the last data received is End of packet(0x17) 
 275:.\UART_Btldr.c **** 			*  If not wait for additional 5ms */
 276:.\UART_Btldr.c **** 			if(pData[dataIndexCntr-1]!= END_OF_PACKET)
 305              		.loc 1 276 0
 306              		.code	16
 307 0098 039B     		ldr	r3, [sp, #12]
 308 009a 029A     		ldr	r2, [sp, #8]
 309 009c 9B18     		add	r3, r3, r2
 310 009e 013B     		sub	r3, r3, #1
 311 00a0 1B78     		ldrb	r3, [r3]
 312 00a2 172B     		cmp	r3, #23
 313 00a4 0AD0     		beq	.L17
 277:.\UART_Btldr.c **** 			    CyDelay(5);
 314              		.loc 1 277 0
 315 00a6 0520     		mov	r0, #5
 316 00a8 FFF7FEFF 		bl	CyDelay
 317              	.LVL33:
 318 00ac 06E0     		b	.L17
 319              	.LVL34:
 320              	.L14:
 278:.\UART_Btldr.c **** 	 	}	
 279:.\UART_Btldr.c **** 		
 280:.\UART_Btldr.c **** 		/* If there is no space to move data, break from the loop */
 281:.\UART_Btldr.c **** 		else
 282:.\UART_Btldr.c **** 		{
 283:.\UART_Btldr.c **** 			*Count=(*Count)-tempCount;
 321              		.loc 1 283 0
 322 00ae 9E1B     		sub	r6, r3, r6
 323              	.LVL35:
 324 00b0 3E80     		strh	r6, [r7]
 284:.\UART_Btldr.c **** 			UART_SpiUartClearRxBuffer();
 325              		.loc 1 284 0
 326 00b2 FFF7FEFF 		bl	UART_SpiUartClearRxBuffer
ARM GAS  C:\Users\vangelis\AppData\Local\Temp\ccfU6CGL.s 			page 12


 327              	.LVL36:
 285:.\UART_Btldr.c **** 			status = CYRET_EMPTY;
 328              		.loc 1 285 0
 329 00b6 0523     		mov	r3, #5
 330 00b8 0193     		str	r3, [sp, #4]
 286:.\UART_Btldr.c **** 			break;
 331              		.loc 1 286 0
 332 00ba 01E0     		b	.L18
 333              	.LVL37:
 334              	.L17:
 263:.\UART_Btldr.c **** 			}
 335              		.loc 1 263 0
 336 00bc 029C     		ldr	r4, [sp, #8]
 337 00be C9E7     		b	.L13
 338              	.LVL38:
 339              	.L18:
 287:.\UART_Btldr.c **** 		}
 288:.\UART_Btldr.c **** 	}
 289:.\UART_Btldr.c **** 	return status;
 290:.\UART_Btldr.c **** }
 340              		.loc 1 290 0
 341 00c0 0198     		ldr	r0, [sp, #4]
 342 00c2 07B0     		add	sp, sp, #28
 343              		@ sp needed
 344              	.LVL39:
 345 00c4 F0BD     		pop	{r4, r5, r6, r7, pc}
 346              	.L28:
 347 00c6 C046     		.align	2
 348              	.L27:
 349 00c8 00000000 		.word	.LANCHOR0
 350              		.cfi_endproc
 351              	.LFE37:
 352              		.size	CyBtldrCommRead, .-CyBtldrCommRead
 353              		.global	receivedDataCount
 354              		.bss
 355              		.align	1
 356              		.set	.LANCHOR0,. + 0
 357              		.type	receivedDataCount, %object
 358              		.size	receivedDataCount, 2
 359              	receivedDataCount:
 360 0000 0000     		.space	2
 361              		.text
 362              	.Letext0:
 363              		.file 2 "Generated_Source\\PSoC4/cytypes.h"
 364              		.file 3 "Generated_Source\\PSoC4/UART.h"
 365              		.file 4 "Generated_Source\\PSoC4/UART_SPI_UART.h"
 366              		.file 5 "Generated_Source\\PSoC4/CyLib.h"